
maind:     file format elf64-x86-64


Disassembly of section .init:

0000000000401910 <_init>:
  401910:	48 83 ec 08          	sub    rsp,0x8
  401914:	e8 33 05 00 00       	call   401e4c <call_gmon_start>
  401919:	e8 c2 05 00 00       	call   401ee0 <frame_dummy>
  40191e:	e8 1d 45 02 00       	call   425e40 <__do_global_ctors_aux>
  401923:	48 83 c4 08          	add    rsp,0x8
  401927:	c3                   	ret    

Disassembly of section .plt:

0000000000401928 <sem_wait@plt-0x10>:
  401928:	ff 35 c2 e6 22 00    	push   QWORD PTR [rip+0x22e6c2]        # 62fff0 <_GLOBAL_OFFSET_TABLE_+0x8>
  40192e:	ff 25 c4 e6 22 00    	jmp    QWORD PTR [rip+0x22e6c4]        # 62fff8 <_GLOBAL_OFFSET_TABLE_+0x10>
  401934:	0f 1f 40 00          	nop    DWORD PTR [rax+0x0]

0000000000401938 <sem_wait@plt>:
  401938:	ff 25 c2 e6 22 00    	jmp    QWORD PTR [rip+0x22e6c2]        # 630000 <_GLOBAL_OFFSET_TABLE_+0x18>
  40193e:	68 00 00 00 00       	push   0x0
  401943:	e9 e0 ff ff ff       	jmp    401928 <_init+0x18>

0000000000401948 <fileno@plt>:
  401948:	ff 25 ba e6 22 00    	jmp    QWORD PTR [rip+0x22e6ba]        # 630008 <_GLOBAL_OFFSET_TABLE_+0x20>
  40194e:	68 01 00 00 00       	push   0x1
  401953:	e9 d0 ff ff ff       	jmp    401928 <_init+0x18>

0000000000401958 <pthread_getspecific@plt>:
  401958:	ff 25 b2 e6 22 00    	jmp    QWORD PTR [rip+0x22e6b2]        # 630010 <_GLOBAL_OFFSET_TABLE_+0x28>
  40195e:	68 02 00 00 00       	push   0x2
  401963:	e9 c0 ff ff ff       	jmp    401928 <_init+0x18>

0000000000401968 <strtold@plt>:
  401968:	ff 25 aa e6 22 00    	jmp    QWORD PTR [rip+0x22e6aa]        # 630018 <_GLOBAL_OFFSET_TABLE_+0x30>
  40196e:	68 03 00 00 00       	push   0x3
  401973:	e9 b0 ff ff ff       	jmp    401928 <_init+0x18>

0000000000401978 <fputc_unlocked@plt>:
  401978:	ff 25 a2 e6 22 00    	jmp    QWORD PTR [rip+0x22e6a2]        # 630020 <_GLOBAL_OFFSET_TABLE_+0x38>
  40197e:	68 04 00 00 00       	push   0x4
  401983:	e9 a0 ff ff ff       	jmp    401928 <_init+0x18>

0000000000401988 <fseeko64@plt>:
  401988:	ff 25 9a e6 22 00    	jmp    QWORD PTR [rip+0x22e69a]        # 630028 <_GLOBAL_OFFSET_TABLE_+0x40>
  40198e:	68 05 00 00 00       	push   0x5
  401993:	e9 90 ff ff ff       	jmp    401928 <_init+0x18>

0000000000401998 <memset@plt>:
  401998:	ff 25 92 e6 22 00    	jmp    QWORD PTR [rip+0x22e692]        # 630030 <_GLOBAL_OFFSET_TABLE_+0x48>
  40199e:	68 06 00 00 00       	push   0x6
  4019a3:	e9 80 ff ff ff       	jmp    401928 <_init+0x18>

00000000004019a8 <snprintf@plt>:
  4019a8:	ff 25 8a e6 22 00    	jmp    QWORD PTR [rip+0x22e68a]        # 630038 <_GLOBAL_OFFSET_TABLE_+0x50>
  4019ae:	68 07 00 00 00       	push   0x7
  4019b3:	e9 70 ff ff ff       	jmp    401928 <_init+0x18>

00000000004019b8 <backtrace@plt>:
  4019b8:	ff 25 82 e6 22 00    	jmp    QWORD PTR [rip+0x22e682]        # 630040 <_GLOBAL_OFFSET_TABLE_+0x58>
  4019be:	68 08 00 00 00       	push   0x8
  4019c3:	e9 60 ff ff ff       	jmp    401928 <_init+0x18>

00000000004019c8 <mmap64@plt>:
  4019c8:	ff 25 7a e6 22 00    	jmp    QWORD PTR [rip+0x22e67a]        # 630048 <_GLOBAL_OFFSET_TABLE_+0x60>
  4019ce:	68 09 00 00 00       	push   0x9
  4019d3:	e9 50 ff ff ff       	jmp    401928 <_init+0x18>

00000000004019d8 <pthread_setspecific@plt>:
  4019d8:	ff 25 72 e6 22 00    	jmp    QWORD PTR [rip+0x22e672]        # 630050 <_GLOBAL_OFFSET_TABLE_+0x68>
  4019de:	68 0a 00 00 00       	push   0xa
  4019e3:	e9 40 ff ff ff       	jmp    401928 <_init+0x18>

00000000004019e8 <memchr@plt>:
  4019e8:	ff 25 6a e6 22 00    	jmp    QWORD PTR [rip+0x22e66a]        # 630058 <_GLOBAL_OFFSET_TABLE_+0x70>
  4019ee:	68 0b 00 00 00       	push   0xb
  4019f3:	e9 30 ff ff ff       	jmp    401928 <_init+0x18>

00000000004019f8 <pthread_mutexattr_destroy@plt>:
  4019f8:	ff 25 62 e6 22 00    	jmp    QWORD PTR [rip+0x22e662]        # 630060 <_GLOBAL_OFFSET_TABLE_+0x78>
  4019fe:	68 0c 00 00 00       	push   0xc
  401a03:	e9 20 ff ff ff       	jmp    401928 <_init+0x18>

0000000000401a08 <setvbuf@plt>:
  401a08:	ff 25 5a e6 22 00    	jmp    QWORD PTR [rip+0x22e65a]        # 630068 <_GLOBAL_OFFSET_TABLE_+0x80>
  401a0e:	68 0d 00 00 00       	push   0xd
  401a13:	e9 10 ff ff ff       	jmp    401928 <_init+0x18>

0000000000401a18 <malloc@plt>:
  401a18:	ff 25 52 e6 22 00    	jmp    QWORD PTR [rip+0x22e652]        # 630070 <_GLOBAL_OFFSET_TABLE_+0x88>
  401a1e:	68 0e 00 00 00       	push   0xe
  401a23:	e9 00 ff ff ff       	jmp    401928 <_init+0x18>

0000000000401a28 <__libc_start_main@plt>:
  401a28:	ff 25 4a e6 22 00    	jmp    QWORD PTR [rip+0x22e64a]        # 630078 <_GLOBAL_OFFSET_TABLE_+0x90>
  401a2e:	68 0f 00 00 00       	push   0xf
  401a33:	e9 f0 fe ff ff       	jmp    401928 <_init+0x18>

0000000000401a38 <sigfillset@plt>:
  401a38:	ff 25 42 e6 22 00    	jmp    QWORD PTR [rip+0x22e642]        # 630080 <_GLOBAL_OFFSET_TABLE_+0x98>
  401a3e:	68 10 00 00 00       	push   0x10
  401a43:	e9 e0 fe ff ff       	jmp    401928 <_init+0x18>

0000000000401a48 <strerror_r@plt>:
  401a48:	ff 25 3a e6 22 00    	jmp    QWORD PTR [rip+0x22e63a]        # 630088 <_GLOBAL_OFFSET_TABLE_+0xa0>
  401a4e:	68 11 00 00 00       	push   0x11
  401a53:	e9 d0 fe ff ff       	jmp    401928 <_init+0x18>

0000000000401a58 <sched_yield@plt>:
  401a58:	ff 25 32 e6 22 00    	jmp    QWORD PTR [rip+0x22e632]        # 630090 <_GLOBAL_OFFSET_TABLE_+0xa8>
  401a5e:	68 12 00 00 00       	push   0x12
  401a63:	e9 c0 fe ff ff       	jmp    401928 <_init+0x18>

0000000000401a68 <sysconf@plt>:
  401a68:	ff 25 2a e6 22 00    	jmp    QWORD PTR [rip+0x22e62a]        # 630098 <_GLOBAL_OFFSET_TABLE_+0xb0>
  401a6e:	68 13 00 00 00       	push   0x13
  401a73:	e9 b0 fe ff ff       	jmp    401928 <_init+0x18>

0000000000401a78 <pthread_mutex_init@plt>:
  401a78:	ff 25 22 e6 22 00    	jmp    QWORD PTR [rip+0x22e622]        # 6300a0 <_GLOBAL_OFFSET_TABLE_+0xb8>
  401a7e:	68 14 00 00 00       	push   0x14
  401a83:	e9 a0 fe ff ff       	jmp    401928 <_init+0x18>

0000000000401a88 <_pthread_cleanup_pop@plt>:
  401a88:	ff 25 1a e6 22 00    	jmp    QWORD PTR [rip+0x22e61a]        # 6300a8 <_GLOBAL_OFFSET_TABLE_+0xc0>
  401a8e:	68 15 00 00 00       	push   0x15
  401a93:	e9 90 fe ff ff       	jmp    401928 <_init+0x18>

0000000000401a98 <sigsuspend@plt>:
  401a98:	ff 25 12 e6 22 00    	jmp    QWORD PTR [rip+0x22e612]        # 6300b0 <_GLOBAL_OFFSET_TABLE_+0xc8>
  401a9e:	68 16 00 00 00       	push   0x16
  401aa3:	e9 80 fe ff ff       	jmp    401928 <_init+0x18>

0000000000401aa8 <backtrace_symbols@plt>:
  401aa8:	ff 25 0a e6 22 00    	jmp    QWORD PTR [rip+0x22e60a]        # 6300b8 <_GLOBAL_OFFSET_TABLE_+0xd0>
  401aae:	68 17 00 00 00       	push   0x17
  401ab3:	e9 70 fe ff ff       	jmp    401928 <_init+0x18>

0000000000401ab8 <free@plt>:
  401ab8:	ff 25 02 e6 22 00    	jmp    QWORD PTR [rip+0x22e602]        # 6300c0 <_GLOBAL_OFFSET_TABLE_+0xd8>
  401abe:	68 18 00 00 00       	push   0x18
  401ac3:	e9 60 fe ff ff       	jmp    401928 <_init+0x18>

0000000000401ac8 <strlen@plt>:
  401ac8:	ff 25 fa e5 22 00    	jmp    QWORD PTR [rip+0x22e5fa]        # 6300c8 <_GLOBAL_OFFSET_TABLE_+0xe0>
  401ace:	68 19 00 00 00       	push   0x19
  401ad3:	e9 50 fe ff ff       	jmp    401928 <_init+0x18>

0000000000401ad8 <ferror@plt>:
  401ad8:	ff 25 f2 e5 22 00    	jmp    QWORD PTR [rip+0x22e5f2]        # 6300d0 <_GLOBAL_OFFSET_TABLE_+0xe8>
  401ade:	68 1a 00 00 00       	push   0x1a
  401ae3:	e9 40 fe ff ff       	jmp    401928 <_init+0x18>

0000000000401ae8 <pthread_create@plt>:
  401ae8:	ff 25 ea e5 22 00    	jmp    QWORD PTR [rip+0x22e5ea]        # 6300d8 <_GLOBAL_OFFSET_TABLE_+0xf0>
  401aee:	68 1b 00 00 00       	push   0x1b
  401af3:	e9 30 fe ff ff       	jmp    401928 <_init+0x18>

0000000000401af8 <pclose@plt>:
  401af8:	ff 25 e2 e5 22 00    	jmp    QWORD PTR [rip+0x22e5e2]        # 6300e0 <_GLOBAL_OFFSET_TABLE_+0xf8>
  401afe:	68 1c 00 00 00       	push   0x1c
  401b03:	e9 20 fe ff ff       	jmp    401928 <_init+0x18>

0000000000401b08 <clock_getres@plt>:
  401b08:	ff 25 da e5 22 00    	jmp    QWORD PTR [rip+0x22e5da]        # 6300e8 <_GLOBAL_OFFSET_TABLE_+0x100>
  401b0e:	68 1d 00 00 00       	push   0x1d
  401b13:	e9 10 fe ff ff       	jmp    401928 <_init+0x18>

0000000000401b18 <pthread_self@plt>:
  401b18:	ff 25 d2 e5 22 00    	jmp    QWORD PTR [rip+0x22e5d2]        # 6300f0 <_GLOBAL_OFFSET_TABLE_+0x108>
  401b1e:	68 1e 00 00 00       	push   0x1e
  401b23:	e9 00 fe ff ff       	jmp    401928 <_init+0x18>

0000000000401b28 <pthread_join@plt>:
  401b28:	ff 25 ca e5 22 00    	jmp    QWORD PTR [rip+0x22e5ca]        # 6300f8 <_GLOBAL_OFFSET_TABLE_+0x110>
  401b2e:	68 1f 00 00 00       	push   0x1f
  401b33:	e9 f0 fd ff ff       	jmp    401928 <_init+0x18>

0000000000401b38 <pthread_getschedparam@plt>:
  401b38:	ff 25 c2 e5 22 00    	jmp    QWORD PTR [rip+0x22e5c2]        # 630100 <_GLOBAL_OFFSET_TABLE_+0x118>
  401b3e:	68 20 00 00 00       	push   0x20
  401b43:	e9 e0 fd ff ff       	jmp    401928 <_init+0x18>

0000000000401b48 <pthread_mutex_trylock@plt>:
  401b48:	ff 25 ba e5 22 00    	jmp    QWORD PTR [rip+0x22e5ba]        # 630108 <_GLOBAL_OFFSET_TABLE_+0x120>
  401b4e:	68 21 00 00 00       	push   0x21
  401b53:	e9 d0 fd ff ff       	jmp    401928 <_init+0x18>

0000000000401b58 <sigaction@plt>:
  401b58:	ff 25 b2 e5 22 00    	jmp    QWORD PTR [rip+0x22e5b2]        # 630110 <_GLOBAL_OFFSET_TABLE_+0x128>
  401b5e:	68 22 00 00 00       	push   0x22
  401b63:	e9 c0 fd ff ff       	jmp    401928 <_init+0x18>

0000000000401b68 <pthread_attr_setstacksize@plt>:
  401b68:	ff 25 aa e5 22 00    	jmp    QWORD PTR [rip+0x22e5aa]        # 630118 <_GLOBAL_OFFSET_TABLE_+0x130>
  401b6e:	68 23 00 00 00       	push   0x23
  401b73:	e9 b0 fd ff ff       	jmp    401928 <_init+0x18>

0000000000401b78 <rewind@plt>:
  401b78:	ff 25 a2 e5 22 00    	jmp    QWORD PTR [rip+0x22e5a2]        # 630120 <_GLOBAL_OFFSET_TABLE_+0x138>
  401b7e:	68 24 00 00 00       	push   0x24
  401b83:	e9 a0 fd ff ff       	jmp    401928 <_init+0x18>

0000000000401b88 <tmpfile@plt>:
  401b88:	ff 25 9a e5 22 00    	jmp    QWORD PTR [rip+0x22e59a]        # 630128 <_GLOBAL_OFFSET_TABLE_+0x140>
  401b8e:	68 25 00 00 00       	push   0x25
  401b93:	e9 90 fd ff ff       	jmp    401928 <_init+0x18>

0000000000401b98 <memcpy@plt>:
  401b98:	ff 25 92 e5 22 00    	jmp    QWORD PTR [rip+0x22e592]        # 630130 <_GLOBAL_OFFSET_TABLE_+0x148>
  401b9e:	68 26 00 00 00       	push   0x26
  401ba3:	e9 80 fd ff ff       	jmp    401928 <_init+0x18>

0000000000401ba8 <memmove@plt>:
  401ba8:	ff 25 8a e5 22 00    	jmp    QWORD PTR [rip+0x22e58a]        # 630138 <_GLOBAL_OFFSET_TABLE_+0x150>
  401bae:	68 27 00 00 00       	push   0x27
  401bb3:	e9 70 fd ff ff       	jmp    401928 <_init+0x18>

0000000000401bb8 <fread@plt>:
  401bb8:	ff 25 82 e5 22 00    	jmp    QWORD PTR [rip+0x22e582]        # 630140 <_GLOBAL_OFFSET_TABLE_+0x158>
  401bbe:	68 28 00 00 00       	push   0x28
  401bc3:	e9 60 fd ff ff       	jmp    401928 <_init+0x18>

0000000000401bc8 <__errno_location@plt>:
  401bc8:	ff 25 7a e5 22 00    	jmp    QWORD PTR [rip+0x22e57a]        # 630148 <_GLOBAL_OFFSET_TABLE_+0x160>
  401bce:	68 29 00 00 00       	push   0x29
  401bd3:	e9 50 fd ff ff       	jmp    401928 <_init+0x18>

0000000000401bd8 <fputwc_unlocked@plt>:
  401bd8:	ff 25 72 e5 22 00    	jmp    QWORD PTR [rip+0x22e572]        # 630150 <_GLOBAL_OFFSET_TABLE_+0x168>
  401bde:	68 2a 00 00 00       	push   0x2a
  401be3:	e9 40 fd ff ff       	jmp    401928 <_init+0x18>

0000000000401be8 <sem_init@plt>:
  401be8:	ff 25 6a e5 22 00    	jmp    QWORD PTR [rip+0x22e56a]        # 630158 <_GLOBAL_OFFSET_TABLE_+0x170>
  401bee:	68 2b 00 00 00       	push   0x2b
  401bf3:	e9 30 fd ff ff       	jmp    401928 <_init+0x18>

0000000000401bf8 <pthread_mutexattr_settype@plt>:
  401bf8:	ff 25 62 e5 22 00    	jmp    QWORD PTR [rip+0x22e562]        # 630160 <_GLOBAL_OFFSET_TABLE_+0x178>
  401bfe:	68 2c 00 00 00       	push   0x2c
  401c03:	e9 20 fd ff ff       	jmp    401928 <_init+0x18>

0000000000401c08 <test@plt>:
  401c08:	ff 25 5a e5 22 00    	jmp    QWORD PTR [rip+0x22e55a]        # 630168 <_GLOBAL_OFFSET_TABLE_+0x180>
  401c0e:	68 2d 00 00 00       	push   0x2d
  401c13:	e9 10 fd ff ff       	jmp    401928 <_init+0x18>

0000000000401c18 <sem_post@plt>:
  401c18:	ff 25 52 e5 22 00    	jmp    QWORD PTR [rip+0x22e552]        # 630170 <_GLOBAL_OFFSET_TABLE_+0x188>
  401c1e:	68 2e 00 00 00       	push   0x2e
  401c23:	e9 00 fd ff ff       	jmp    401928 <_init+0x18>

0000000000401c28 <pthread_detach@plt>:
  401c28:	ff 25 4a e5 22 00    	jmp    QWORD PTR [rip+0x22e54a]        # 630178 <_GLOBAL_OFFSET_TABLE_+0x190>
  401c2e:	68 2f 00 00 00       	push   0x2f
  401c33:	e9 f0 fc ff ff       	jmp    401928 <_init+0x18>

0000000000401c38 <memcmp@plt>:
  401c38:	ff 25 42 e5 22 00    	jmp    QWORD PTR [rip+0x22e542]        # 630180 <_GLOBAL_OFFSET_TABLE_+0x198>
  401c3e:	68 30 00 00 00       	push   0x30
  401c43:	e9 e0 fc ff ff       	jmp    401928 <_init+0x18>

0000000000401c48 <calloc@plt>:
  401c48:	ff 25 3a e5 22 00    	jmp    QWORD PTR [rip+0x22e53a]        # 630188 <_GLOBAL_OFFSET_TABLE_+0x1a0>
  401c4e:	68 31 00 00 00       	push   0x31
  401c53:	e9 d0 fc ff ff       	jmp    401928 <_init+0x18>

0000000000401c58 <munmap@plt>:
  401c58:	ff 25 32 e5 22 00    	jmp    QWORD PTR [rip+0x22e532]        # 630190 <_GLOBAL_OFFSET_TABLE_+0x1a8>
  401c5e:	68 32 00 00 00       	push   0x32
  401c63:	e9 c0 fc ff ff       	jmp    401928 <_init+0x18>

0000000000401c68 <feof@plt>:
  401c68:	ff 25 2a e5 22 00    	jmp    QWORD PTR [rip+0x22e52a]        # 630198 <_GLOBAL_OFFSET_TABLE_+0x1b0>
  401c6e:	68 33 00 00 00       	push   0x33
  401c73:	e9 b0 fc ff ff       	jmp    401928 <_init+0x18>

0000000000401c78 <backtrace_symbols_fd@plt>:
  401c78:	ff 25 22 e5 22 00    	jmp    QWORD PTR [rip+0x22e522]        # 6301a0 <_GLOBAL_OFFSET_TABLE_+0x1b8>
  401c7e:	68 34 00 00 00       	push   0x34
  401c83:	e9 a0 fc ff ff       	jmp    401928 <_init+0x18>

0000000000401c88 <fclose@plt>:
  401c88:	ff 25 1a e5 22 00    	jmp    QWORD PTR [rip+0x22e51a]        # 6301a8 <_GLOBAL_OFFSET_TABLE_+0x1c0>
  401c8e:	68 35 00 00 00       	push   0x35
  401c93:	e9 90 fc ff ff       	jmp    401928 <_init+0x18>

0000000000401c98 <pthread_attr_init@plt>:
  401c98:	ff 25 12 e5 22 00    	jmp    QWORD PTR [rip+0x22e512]        # 6301b0 <_GLOBAL_OFFSET_TABLE_+0x1c8>
  401c9e:	68 36 00 00 00       	push   0x36
  401ca3:	e9 80 fc ff ff       	jmp    401928 <_init+0x18>

0000000000401ca8 <flockfile@plt>:
  401ca8:	ff 25 0a e5 22 00    	jmp    QWORD PTR [rip+0x22e50a]        # 6301b8 <_GLOBAL_OFFSET_TABLE_+0x1d0>
  401cae:	68 37 00 00 00       	push   0x37
  401cb3:	e9 70 fc ff ff       	jmp    401928 <_init+0x18>

0000000000401cb8 <funlockfile@plt>:
  401cb8:	ff 25 02 e5 22 00    	jmp    QWORD PTR [rip+0x22e502]        # 6301c0 <_GLOBAL_OFFSET_TABLE_+0x1d8>
  401cbe:	68 38 00 00 00       	push   0x38
  401cc3:	e9 60 fc ff ff       	jmp    401928 <_init+0x18>

0000000000401cc8 <sched_get_priority_max@plt>:
  401cc8:	ff 25 fa e4 22 00    	jmp    QWORD PTR [rip+0x22e4fa]        # 6301c8 <_GLOBAL_OFFSET_TABLE_+0x1e0>
  401cce:	68 39 00 00 00       	push   0x39
  401cd3:	e9 50 fc ff ff       	jmp    401928 <_init+0x18>

0000000000401cd8 <_pthread_cleanup_push@plt>:
  401cd8:	ff 25 f2 e4 22 00    	jmp    QWORD PTR [rip+0x22e4f2]        # 6301d0 <_GLOBAL_OFFSET_TABLE_+0x1e8>
  401cde:	68 3a 00 00 00       	push   0x3a
  401ce3:	e9 40 fc ff ff       	jmp    401928 <_init+0x18>

0000000000401ce8 <clearerr@plt>:
  401ce8:	ff 25 ea e4 22 00    	jmp    QWORD PTR [rip+0x22e4ea]        # 6301d8 <_GLOBAL_OFFSET_TABLE_+0x1f0>
  401cee:	68 3b 00 00 00       	push   0x3b
  401cf3:	e9 30 fc ff ff       	jmp    401928 <_init+0x18>

0000000000401cf8 <fopen64@plt>:
  401cf8:	ff 25 e2 e4 22 00    	jmp    QWORD PTR [rip+0x22e4e2]        # 6301e0 <_GLOBAL_OFFSET_TABLE_+0x1f8>
  401cfe:	68 3c 00 00 00       	push   0x3c
  401d03:	e9 20 fc ff ff       	jmp    401928 <_init+0x18>

0000000000401d08 <fwrite@plt>:
  401d08:	ff 25 da e4 22 00    	jmp    QWORD PTR [rip+0x22e4da]        # 6301e8 <_GLOBAL_OFFSET_TABLE_+0x200>
  401d0e:	68 3d 00 00 00       	push   0x3d
  401d13:	e9 10 fc ff ff       	jmp    401928 <_init+0x18>

0000000000401d18 <pthread_mutex_lock@plt>:
  401d18:	ff 25 d2 e4 22 00    	jmp    QWORD PTR [rip+0x22e4d2]        # 6301f0 <_GLOBAL_OFFSET_TABLE_+0x208>
  401d1e:	68 3e 00 00 00       	push   0x3e
  401d23:	e9 00 fc ff ff       	jmp    401928 <_init+0x18>

0000000000401d28 <sigdelset@plt>:
  401d28:	ff 25 ca e4 22 00    	jmp    QWORD PTR [rip+0x22e4ca]        # 6301f8 <_GLOBAL_OFFSET_TABLE_+0x210>
  401d2e:	68 3f 00 00 00       	push   0x3f
  401d33:	e9 f0 fb ff ff       	jmp    401928 <_init+0x18>

0000000000401d38 <realloc@plt>:
  401d38:	ff 25 c2 e4 22 00    	jmp    QWORD PTR [rip+0x22e4c2]        # 630200 <_GLOBAL_OFFSET_TABLE_+0x218>
  401d3e:	68 40 00 00 00       	push   0x40
  401d43:	e9 e0 fb ff ff       	jmp    401928 <_init+0x18>

0000000000401d48 <pthread_mutexattr_init@plt>:
  401d48:	ff 25 ba e4 22 00    	jmp    QWORD PTR [rip+0x22e4ba]        # 630208 <_GLOBAL_OFFSET_TABLE_+0x220>
  401d4e:	68 41 00 00 00       	push   0x41
  401d53:	e9 d0 fb ff ff       	jmp    401928 <_init+0x18>

0000000000401d58 <pthread_key_create@plt>:
  401d58:	ff 25 b2 e4 22 00    	jmp    QWORD PTR [rip+0x22e4b2]        # 630210 <_GLOBAL_OFFSET_TABLE_+0x228>
  401d5e:	68 42 00 00 00       	push   0x42
  401d63:	e9 c0 fb ff ff       	jmp    401928 <_init+0x18>

0000000000401d68 <pthread_mutex_destroy@plt>:
  401d68:	ff 25 aa e4 22 00    	jmp    QWORD PTR [rip+0x22e4aa]        # 630218 <_GLOBAL_OFFSET_TABLE_+0x230>
  401d6e:	68 43 00 00 00       	push   0x43
  401d73:	e9 b0 fb ff ff       	jmp    401928 <_init+0x18>

0000000000401d78 <fwide@plt>:
  401d78:	ff 25 a2 e4 22 00    	jmp    QWORD PTR [rip+0x22e4a2]        # 630220 <_GLOBAL_OFFSET_TABLE_+0x238>
  401d7e:	68 44 00 00 00       	push   0x44
  401d83:	e9 a0 fb ff ff       	jmp    401928 <_init+0x18>

0000000000401d88 <write@plt>:
  401d88:	ff 25 9a e4 22 00    	jmp    QWORD PTR [rip+0x22e49a]        # 630228 <_GLOBAL_OFFSET_TABLE_+0x240>
  401d8e:	68 45 00 00 00       	push   0x45
  401d93:	e9 90 fb ff ff       	jmp    401928 <_init+0x18>

0000000000401d98 <sched_get_priority_min@plt>:
  401d98:	ff 25 92 e4 22 00    	jmp    QWORD PTR [rip+0x22e492]        # 630230 <_GLOBAL_OFFSET_TABLE_+0x248>
  401d9e:	68 46 00 00 00       	push   0x46
  401da3:	e9 80 fb ff ff       	jmp    401928 <_init+0x18>

0000000000401da8 <ftello64@plt>:
  401da8:	ff 25 8a e4 22 00    	jmp    QWORD PTR [rip+0x22e48a]        # 630238 <_GLOBAL_OFFSET_TABLE_+0x250>
  401dae:	68 47 00 00 00       	push   0x47
  401db3:	e9 70 fb ff ff       	jmp    401928 <_init+0x18>

0000000000401db8 <popen@plt>:
  401db8:	ff 25 82 e4 22 00    	jmp    QWORD PTR [rip+0x22e482]        # 630240 <_GLOBAL_OFFSET_TABLE_+0x258>
  401dbe:	68 48 00 00 00       	push   0x48
  401dc3:	e9 60 fb ff ff       	jmp    401928 <_init+0x18>

0000000000401dc8 <clock_gettime@plt>:
  401dc8:	ff 25 7a e4 22 00    	jmp    QWORD PTR [rip+0x22e47a]        # 630248 <_GLOBAL_OFFSET_TABLE_+0x260>
  401dce:	68 49 00 00 00       	push   0x49
  401dd3:	e9 50 fb ff ff       	jmp    401928 <_init+0x18>

0000000000401dd8 <pthread_mutex_unlock@plt>:
  401dd8:	ff 25 72 e4 22 00    	jmp    QWORD PTR [rip+0x22e472]        # 630250 <_GLOBAL_OFFSET_TABLE_+0x268>
  401dde:	68 4a 00 00 00       	push   0x4a
  401de3:	e9 40 fb ff ff       	jmp    401928 <_init+0x18>

0000000000401de8 <pthread_kill@plt>:
  401de8:	ff 25 6a e4 22 00    	jmp    QWORD PTR [rip+0x22e46a]        # 630258 <_GLOBAL_OFFSET_TABLE_+0x270>
  401dee:	68 4b 00 00 00       	push   0x4b
  401df3:	e9 30 fb ff ff       	jmp    401928 <_init+0x18>

0000000000401df8 <fflush@plt>:
  401df8:	ff 25 62 e4 22 00    	jmp    QWORD PTR [rip+0x22e462]        # 630260 <_GLOBAL_OFFSET_TABLE_+0x278>
  401dfe:	68 4c 00 00 00       	push   0x4c
  401e03:	e9 20 fb ff ff       	jmp    401928 <_init+0x18>

0000000000401e08 <pthread_attr_setdetachstate@plt>:
  401e08:	ff 25 5a e4 22 00    	jmp    QWORD PTR [rip+0x22e45a]        # 630268 <_GLOBAL_OFFSET_TABLE_+0x280>
  401e0e:	68 4d 00 00 00       	push   0x4d
  401e13:	e9 10 fb ff ff       	jmp    401928 <_init+0x18>

Disassembly of section .text:

0000000000401e20 <_start>:
  401e20:	31 ed                	xor    ebp,ebp
  401e22:	49 89 d1             	mov    r9,rdx
  401e25:	5e                   	pop    rsi
  401e26:	48 89 e2             	mov    rdx,rsp
  401e29:	48 83 e4 f0          	and    rsp,0xfffffffffffffff0
  401e2d:	50                   	push   rax
  401e2e:	54                   	push   rsp
  401e2f:	49 c7 c0 30 5e 42 00 	mov    r8,0x425e30
  401e36:	48 c7 c1 a0 5d 42 00 	mov    rcx,0x425da0
  401e3d:	48 c7 c7 54 ad 40 00 	mov    rdi,0x40ad54
  401e44:	e8 df fb ff ff       	call   401a28 <__libc_start_main@plt>
  401e49:	f4                   	hlt    
  401e4a:	90                   	nop
  401e4b:	90                   	nop

0000000000401e4c <call_gmon_start>:
  401e4c:	48 83 ec 08          	sub    rsp,0x8
  401e50:	48 8b 05 89 e1 22 00 	mov    rax,QWORD PTR [rip+0x22e189]        # 62ffe0 <_DYNAMIC+0x1d0>
  401e57:	48 85 c0             	test   rax,rax
  401e5a:	74 02                	je     401e5e <call_gmon_start+0x12>
  401e5c:	ff d0                	call   rax
  401e5e:	48 83 c4 08          	add    rsp,0x8
  401e62:	c3                   	ret    
  401e63:	90                   	nop
  401e64:	90                   	nop
  401e65:	90                   	nop
  401e66:	90                   	nop
  401e67:	90                   	nop
  401e68:	90                   	nop
  401e69:	90                   	nop
  401e6a:	90                   	nop
  401e6b:	90                   	nop
  401e6c:	90                   	nop
  401e6d:	90                   	nop
  401e6e:	90                   	nop
  401e6f:	90                   	nop

0000000000401e70 <__do_global_dtors_aux>:
  401e70:	55                   	push   rbp
  401e71:	48 89 e5             	mov    rbp,rsp
  401e74:	53                   	push   rbx
  401e75:	48 83 ec 08          	sub    rsp,0x8
  401e79:	80 3d c8 48 23 00 00 	cmp    BYTE PTR [rip+0x2348c8],0x0        # 636748 <completed.6557>
  401e80:	75 4b                	jne    401ecd <__do_global_dtors_aux+0x5d>
  401e82:	bb 00 fe 62 00       	mov    ebx,0x62fe00
  401e87:	48 8b 05 c2 48 23 00 	mov    rax,QWORD PTR [rip+0x2348c2]        # 636750 <dtor_idx.6559>
  401e8e:	48 81 eb e8 fd 62 00 	sub    rbx,0x62fde8
  401e95:	48 c1 fb 03          	sar    rbx,0x3
  401e99:	48 83 eb 01          	sub    rbx,0x1
  401e9d:	48 39 d8             	cmp    rax,rbx
  401ea0:	73 24                	jae    401ec6 <__do_global_dtors_aux+0x56>
  401ea2:	66 0f 1f 44 00 00    	nop    WORD PTR [rax+rax*1+0x0]
  401ea8:	48 83 c0 01          	add    rax,0x1
  401eac:	48 89 05 9d 48 23 00 	mov    QWORD PTR [rip+0x23489d],rax        # 636750 <dtor_idx.6559>
  401eb3:	ff 14 c5 e8 fd 62 00 	call   QWORD PTR [rax*8+0x62fde8]
  401eba:	48 8b 05 8f 48 23 00 	mov    rax,QWORD PTR [rip+0x23488f]        # 636750 <dtor_idx.6559>
  401ec1:	48 39 d8             	cmp    rax,rbx
  401ec4:	72 e2                	jb     401ea8 <__do_global_dtors_aux+0x38>
  401ec6:	c6 05 7b 48 23 00 01 	mov    BYTE PTR [rip+0x23487b],0x1        # 636748 <completed.6557>
  401ecd:	48 83 c4 08          	add    rsp,0x8
  401ed1:	5b                   	pop    rbx
  401ed2:	c9                   	leave  
  401ed3:	c3                   	ret    
  401ed4:	66 66 66 2e 0f 1f 84 	data32 data32 nop WORD PTR cs:[rax+rax*1+0x0]
  401edb:	00 00 00 00 00 

0000000000401ee0 <frame_dummy>:
  401ee0:	48 83 3d 20 df 22 00 	cmp    QWORD PTR [rip+0x22df20],0x0        # 62fe08 <__JCR_END__>
  401ee7:	00 
  401ee8:	55                   	push   rbp
  401ee9:	48 89 e5             	mov    rbp,rsp
  401eec:	74 12                	je     401f00 <frame_dummy+0x20>
  401eee:	b8 00 00 00 00       	mov    eax,0x0
  401ef3:	48 85 c0             	test   rax,rax
  401ef6:	74 08                	je     401f00 <frame_dummy+0x20>
  401ef8:	bf 08 fe 62 00       	mov    edi,0x62fe08
  401efd:	c9                   	leave  
  401efe:	ff e0                	jmp    rax
  401f00:	c9                   	leave  
  401f01:	c3                   	ret    
  401f02:	90                   	nop
  401f03:	90                   	nop
  401f04:	b8 b0 04 63 00       	mov    eax,0x6304b0
  401f09:	b9 90 67 63 00       	mov    ecx,0x636790
  401f0e:	48 8b 11             	mov    rdx,QWORD PTR [rcx]
  401f11:	48 89 10             	mov    QWORD PTR [rax],rdx
  401f14:	48 89 01             	mov    QWORD PTR [rcx],rax
  401f17:	c3                   	ret    

0000000000401f18 <_Dmain>:
  401f18:	55                   	push   rbp
  401f19:	48 8b ec             	mov    rbp,rsp
  401f1c:	48 83 ec 20          	sub    rsp,0x20
  401f20:	48 b8 ef be ad de 00 	movabs rax,0xdeadbeef
  401f27:	00 00 00 
  401f2a:	48 89 45 e0          	mov    QWORD PTR [rbp-0x20],rax
  401f2e:	b9 64 00 00 00       	mov    ecx,0x64
  401f33:	89 4d e8             	mov    DWORD PTR [rbp-0x18],ecx
  401f36:	48 89 ca             	mov    rdx,rcx
  401f39:	48 89 c6             	mov    rsi,rax
  401f3c:	48 8d 7d f0          	lea    rdi,[rbp-0x10]
  401f40:	e8 c3 fc ff ff       	call   401c08 <test@plt>
  401f45:	ff 35 7d 3f 02 00    	push   QWORD PTR [rip+0x23f7d]        # 425ec8 <_TMP0+0x8>
  401f4b:	ff 35 6f 3f 02 00    	push   QWORD PTR [rip+0x23f6f]        # 425ec0 <_TMP0>
  401f51:	48 8b 75 f0          	mov    rsi,QWORD PTR [rbp-0x10]
  401f55:	8b 7d f8             	mov    edi,DWORD PTR [rbp-0x8]
  401f58:	e8 0b 00 00 00       	call   401f68 <_D3std5stdio22__T8writeflnTAyaTPvTkZ8writeflnFAyaPvkZv>
  401f5d:	48 83 c4 10          	add    rsp,0x10
  401f61:	31 c0                	xor    eax,eax
  401f63:	c9                   	leave  
  401f64:	c3                   	ret    
  401f65:	90                   	nop
  401f66:	90                   	nop
  401f67:	90                   	nop

0000000000401f68 <_D3std5stdio22__T8writeflnTAyaTPvTkZ8writeflnFAyaPvkZv>:
  401f68:	55                   	push   rbp
  401f69:	48 8b ec             	mov    rbp,rsp
  401f6c:	48 83 ec 10          	sub    rsp,0x10
  401f70:	89 7d f0             	mov    DWORD PTR [rbp-0x10],edi
  401f73:	48 89 75 f8          	mov    QWORD PTR [rbp-0x8],rsi
  401f77:	ff 75 18             	push   QWORD PTR [rbp+0x18]
  401f7a:	ff 75 10             	push   QWORD PTR [rbp+0x10]
  401f7d:	48 8b 55 f8          	mov    rdx,QWORD PTR [rbp-0x8]
  401f81:	8b 75 f0             	mov    esi,DWORD PTR [rbp-0x10]
  401f84:	48 bf b8 67 63 00 00 	movabs rdi,0x6367b8
  401f8b:	00 00 00 
  401f8e:	e8 09 00 00 00       	call   401f9c <_D3std5stdio4File22__T8writeflnTAyaTPvTkZ8writeflnMFAyaPvkZv>
  401f93:	48 83 c4 10          	add    rsp,0x10
  401f97:	c9                   	leave  
  401f98:	c3                   	ret    
  401f99:	90                   	nop
  401f9a:	90                   	nop
  401f9b:	90                   	nop

0000000000401f9c <_D3std5stdio4File22__T8writeflnTAyaTPvTkZ8writeflnMFAyaPvkZv>:
  401f9c:	55                   	push   rbp
  401f9d:	48 8b ec             	mov    rbp,rsp
  401fa0:	48 83 ec 58          	sub    rsp,0x58
  401fa4:	53                   	push   rbx
  401fa5:	41 54                	push   r12
  401fa7:	41 55                	push   r13
  401fa9:	41 56                	push   r14
  401fab:	41 57                	push   r15
  401fad:	48 89 7d e8          	mov    QWORD PTR [rbp-0x18],rdi
  401fb1:	89 75 f0             	mov    DWORD PTR [rbp-0x10],esi
  401fb4:	48 89 55 f8          	mov    QWORD PTR [rbp-0x8],rdx
  401fb8:	48 83 7d e8 00       	cmp    QWORD PTR [rbp-0x18],0x0
  401fbd:	75 22                	jne    401fe1 <_D3std5stdio4File22__T8writeflnTAyaTPvTkZ8writeflnMFAyaPvkZv+0x45>
  401fbf:	bf d3 02 00 00       	mov    edi,0x2d3
  401fc4:	ff 35 4e 3f 02 00    	push   QWORD PTR [rip+0x23f4e]        # 425f18 <_TMP1+0x8>
  401fca:	ff 35 40 3f 02 00    	push   QWORD PTR [rip+0x23f40]        # 425f10 <_TMP1>
  401fd0:	ff 35 62 3f 02 00    	push   QWORD PTR [rip+0x23f62]        # 425f38 <_TMP2+0x8>
  401fd6:	ff 35 54 3f 02 00    	push   QWORD PTR [rip+0x23f54]        # 425f30 <_TMP2>
  401fdc:	e8 4b 8d 00 00       	call   40ad2c <_d_assert_msg>
  401fe1:	48 8d 75 b0          	lea    rsi,[rbp-0x50]
  401fe5:	48 8b 7d e8          	mov    rdi,QWORD PTR [rbp-0x18]
  401fe9:	e8 2a e3 00 00       	call   410318 <_D3std5stdio4File17lockingTextWriterMFNdZS3std5stdio4File17LockingTextWriter>
  401fee:	48 83 ec 08          	sub    rsp,0x8
  401ff2:	48 83 ec 08          	sub    rsp,0x8
  401ff6:	48 8d 75 b0          	lea    rsi,[rbp-0x50]
  401ffa:	48 8d 7d d0          	lea    rdi,[rbp-0x30]
  401ffe:	e8 bd e2 00 00       	call   4102c0 <_D3std5stdio4File17LockingTextWriter8__cpctorMxFKxS3std5stdio4File17LockingTextWriterZv>
  402003:	48 83 c4 08          	add    rsp,0x8
  402007:	48 8d 5d d0          	lea    rbx,[rbp-0x30]
  40200b:	ff 73 10             	push   QWORD PTR [rbx+0x10]
  40200e:	ff 73 08             	push   QWORD PTR [rbx+0x8]
  402011:	ff 33                	push   QWORD PTR [rbx]
  402013:	ff 75 18             	push   QWORD PTR [rbp+0x18]
  402016:	ff 75 10             	push   QWORD PTR [rbp+0x10]
  402019:	48 8b 75 f8          	mov    rsi,QWORD PTR [rbp-0x8]
  40201d:	8b 7d f0             	mov    edi,DWORD PTR [rbp-0x10]
  402020:	e8 3b 00 00 00       	call   402060 <_D3std6format63__T14formattedWriteTS3std5stdio4File17LockingTextWriterTaTPvTkZ14formattedWriteFS3std5stdio4File17LockingTextWriterxAaPvkZv>
  402025:	48 83 c4 30          	add    rsp,0x30
  402029:	40 b6 0a             	mov    sil,0xa
  40202c:	48 8d 7d b0          	lea    rdi,[rbp-0x50]
  402030:	e8 bb 2b 00 00       	call   404bf0 <_D3std5stdio4File17LockingTextWriter10__T3putTaZ3putMFaZv>
  402035:	48 8b 45 e8          	mov    rax,QWORD PTR [rbp-0x18]
  402039:	48 8b 08             	mov    rcx,QWORD PTR [rax]
  40203c:	48 8b 39             	mov    rdi,QWORD PTR [rcx]
  40203f:	e8 b4 fd ff ff       	call   401df8 <fflush@plt>
  402044:	68 53 20 40 00       	push   0x402053
  402049:	48 8d 7d b0          	lea    rdi,[rbp-0x50]
  40204d:	e8 06 e2 00 00       	call   410258 <_D3std5stdio4File17LockingTextWriter6__dtorMFZv>
  402052:	c3                   	ret    
  402053:	41 5f                	pop    r15
  402055:	41 5e                	pop    r14
  402057:	41 5d                	pop    r13
  402059:	41 5c                	pop    r12
  40205b:	5b                   	pop    rbx
  40205c:	c9                   	leave  
  40205d:	c3                   	ret    
  40205e:	90                   	nop
  40205f:	90                   	nop

0000000000402060 <_D3std6format63__T14formattedWriteTS3std5stdio4File17LockingTextWriterTaTPvTkZ14formattedWriteFS3std5stdio4File17LockingTextWriterxAaPvkZv>:
  402060:	55                   	push   rbp
  402061:	48 8b ec             	mov    rbp,rsp
  402064:	48 81 ec 68 01 00 00 	sub    rsp,0x168
  40206b:	53                   	push   rbx
  40206c:	41 54                	push   r12
  40206e:	41 55                	push   r13
  402070:	41 56                	push   r14
  402072:	41 57                	push   r15
  402074:	89 7d f0             	mov    DWORD PTR [rbp-0x10],edi
  402077:	48 89 75 f8          	mov    QWORD PTR [rbp-0x8],rsi
  40207b:	48 8b 45 f8          	mov    rax,QWORD PTR [rbp-0x8]
  40207f:	48 89 85 e8 fe ff ff 	mov    QWORD PTR [rbp-0x118],rax
  402086:	48 b9 c4 3e 40 00 00 	movabs rcx,0x403ec4
  40208d:	00 00 00 
  402090:	48 89 8d c8 fe ff ff 	mov    QWORD PTR [rbp-0x138],rcx
  402097:	48 8d 55 f8          	lea    rdx,[rbp-0x8]
  40209b:	48 89 95 d8 fe ff ff 	mov    QWORD PTR [rbp-0x128],rdx
  4020a2:	8b 5d f0             	mov    ebx,DWORD PTR [rbp-0x10]
  4020a5:	89 9d f0 fe ff ff    	mov    DWORD PTR [rbp-0x110],ebx
  4020ab:	48 be 90 4e 40 00 00 	movabs rsi,0x404e90
  4020b2:	00 00 00 
  4020b5:	48 89 b5 d0 fe ff ff 	mov    QWORD PTR [rbp-0x130],rsi
  4020bc:	48 8d 45 f0          	lea    rax,[rbp-0x10]
  4020c0:	48 89 85 e0 fe ff ff 	mov    QWORD PTR [rbp-0x120],rax
  4020c7:	c7 85 f4 fe ff ff 00 	mov    DWORD PTR [rbp-0x10c],0x0
  4020ce:	00 00 00 
  4020d1:	48 be 40 06 63 00 00 	movabs rsi,0x630640
  4020d8:	00 00 00 
  4020db:	48 8d bd f8 fe ff ff 	lea    rdi,[rbp-0x108]
  4020e2:	b9 08 00 00 00       	mov    ecx,0x8
  4020e7:	f3 48 a5             	rep movs QWORD PTR es:[rdi],QWORD PTR ds:[rsi]
  4020ea:	ff 75 18             	push   QWORD PTR [rbp+0x18]
  4020ed:	ff 75 10             	push   QWORD PTR [rbp+0x10]
  4020f0:	48 8d bd f8 fe ff ff 	lea    rdi,[rbp-0x108]
  4020f7:	e8 98 07 00 00       	call   402894 <_D3std6format18__T10FormatSpecTaZ10FormatSpec6__ctorMFxAaZS3std6format18__T10FormatSpecTaZ10FormatSpec>
  4020fc:	48 83 c4 10          	add    rsp,0x10
  402100:	48 83 ec 08          	sub    rsp,0x8
  402104:	48 83 ec 08          	sub    rsp,0x8
  402108:	48 8d 75 20          	lea    rsi,[rbp+0x20]
  40210c:	48 8d bd 38 ff ff ff 	lea    rdi,[rbp-0xc8]
  402113:	e8 a8 e1 00 00       	call   4102c0 <_D3std5stdio4File17LockingTextWriter8__cpctorMxFKxS3std5stdio4File17LockingTextWriterZv>
  402118:	48 83 c4 08          	add    rsp,0x8
  40211c:	48 8d 9d 38 ff ff ff 	lea    rbx,[rbp-0xc8]
  402123:	ff 73 10             	push   QWORD PTR [rbx+0x10]
  402126:	ff 73 08             	push   QWORD PTR [rbx+0x8]
  402129:	ff 33                	push   QWORD PTR [rbx]
  40212b:	48 8d bd f8 fe ff ff 	lea    rdi,[rbp-0x108]
  402132:	e8 e1 2e 00 00       	call   405018 <_D3std6format18__T10FormatSpecTaZ10FormatSpec59__T17writeUpToNextSpecTS3std5stdio4File17LockingTextWriterZ17writeUpToNextSpecMFS3std5stdio4File17LockingTextWriterZb>
  402137:	48 83 c4 20          	add    rsp,0x20
  40213b:	84 c0                	test   al,al
  40213d:	0f 84 e7 03 00 00    	je     40252a <_D3std6format63__T14formattedWriteTS3std5stdio4File17LockingTextWriterTaTPvTkZ14formattedWriteFS3std5stdio4File17LockingTextWriterxAaPvkZv+0x4ca>
  402143:	8b 85 f4 fe ff ff    	mov    eax,DWORD PTR [rbp-0x10c]
  402149:	48 83 f8 02          	cmp    rax,0x2
  40214d:	75 46                	jne    402195 <_D3std6format63__T14formattedWriteTS3std5stdio4File17LockingTextWriterTaTPvTkZ14formattedWriteFS3std5stdio4File17LockingTextWriterxAaPvkZv+0x135>
  40214f:	40 80 bd 01 ff ff ff 	rex cmp BYTE PTR [rbp-0xff],0x0
  402156:	00 
  402157:	75 3c                	jne    402195 <_D3std6format63__T14formattedWriteTS3std5stdio4File17LockingTextWriterTaTPvTkZ14formattedWriteFS3std5stdio4File17LockingTextWriterxAaPvkZv+0x135>
  402159:	48 83 7d 10 00       	cmp    QWORD PTR [rbp+0x10],0x0
  40215e:	48 0f 94 c6          	rex.W sete sil
  402162:	48 89 eb             	mov    rbx,rbp
  402165:	48 b9 44 25 40 00 00 	movabs rcx,0x402544
  40216c:	00 00 00 
  40216f:	51                   	push   rcx
  402170:	53                   	push   rbx
  402171:	ff 35 11 3e 02 00    	push   QWORD PTR [rip+0x23e11]        # 425f88 <_TMP5+0x8>
  402177:	ff 35 03 3e 02 00    	push   QWORD PTR [rip+0x23e03]        # 425f80 <_TMP5>
  40217d:	48 bf 9d 01 00 00 00 	movabs rdi,0x19d
  402184:	00 00 00 
  402187:	e8 70 25 00 00       	call   4046fc <_D3std9exception44__T9enforceExTC3std6format15FormatExceptionZ16__T9enforceExTbZ9enforceExFNaNfbLAyaAyamZb>
  40218c:	48 83 c4 20          	add    rsp,0x20
  402190:	e9 95 03 00 00       	jmp    40252a <_D3std6format63__T14formattedWriteTS3std5stdio4File17LockingTextWriterTaTPvTkZ14formattedWriteFS3std5stdio4File17LockingTextWriterxAaPvkZv+0x4ca>
  402195:	81 bd f8 fe ff ff ff 	cmp    DWORD PTR [rbp-0x108],0x7fffffff
  40219c:	ff ff 7f 
  40219f:	75 58                	jne    4021f9 <_D3std6format63__T14formattedWriteTS3std5stdio4File17LockingTextWriterTaTPvTkZ14formattedWriteFS3std5stdio4File17LockingTextWriterxAaPvkZv+0x199>
  4021a1:	8b 95 f4 fe ff ff    	mov    edx,DWORD PTR [rbp-0x10c]
  4021a7:	48 8b 75 f8          	mov    rsi,QWORD PTR [rbp-0x8]
  4021ab:	8b 7d f0             	mov    edi,DWORD PTR [rbp-0x10]
  4021ae:	e8 0d 35 00 00       	call   4056c0 <_D3std6format19__T9getNthIntTPvTkZ9getNthIntFkPvkZi>
  4021b3:	48 89 c7             	mov    rdi,rax
  4021b6:	e8 d5 36 00 00       	call   405890 <_D3std4conv9__T2toTiZ9__T2toTiZ2toFiZi>
  4021bb:	89 85 50 ff ff ff    	mov    DWORD PTR [rbp-0xb0],eax
  4021c1:	85 c0                	test   eax,eax
  4021c3:	79 1d                	jns    4021e2 <_D3std6format63__T14formattedWriteTS3std5stdio4File17LockingTextWriterTaTPvTkZ14formattedWriteFS3std5stdio4File17LockingTextWriterxAaPvkZv+0x182>
  4021c5:	40 b6 01             	mov    sil,0x1
  4021c8:	48 8d bd f8 fe ff ff 	lea    rdi,[rbp-0x108]
  4021cf:	e8 ec 03 00 00       	call   4025c0 <_D3std6format18__T10FormatSpecTaZ10FormatSpec6flDashMFNdbZv>
  4021d4:	8b 85 50 ff ff ff    	mov    eax,DWORD PTR [rbp-0xb0]
  4021da:	f7 d8                	neg    eax
  4021dc:	89 85 50 ff ff ff    	mov    DWORD PTR [rbp-0xb0],eax
  4021e2:	8b 8d 50 ff ff ff    	mov    ecx,DWORD PTR [rbp-0xb0]
  4021e8:	89 8d f8 fe ff ff    	mov    DWORD PTR [rbp-0x108],ecx
  4021ee:	ff 85 f4 fe ff ff    	inc    DWORD PTR [rbp-0x10c]
  4021f4:	e9 95 00 00 00       	jmp    40228e <_D3std6format63__T14formattedWriteTS3std5stdio4File17LockingTextWriterTaTPvTkZ14formattedWriteFS3std5stdio4File17LockingTextWriterxAaPvkZv+0x22e>
  4021f9:	83 bd f8 fe ff ff 00 	cmp    DWORD PTR [rbp-0x108],0x0
  402200:	0f 89 88 00 00 00    	jns    40228e <_D3std6format63__T14formattedWriteTS3std5stdio4File17LockingTextWriterTaTPvTkZ14formattedWriteFS3std5stdio4File17LockingTextWriterxAaPvkZv+0x22e>
  402206:	8b 95 f8 fe ff ff    	mov    edx,DWORD PTR [rbp-0x108]
  40220c:	f7 da                	neg    edx
  40220e:	89 95 54 ff ff ff    	mov    DWORD PTR [rbp-0xac],edx
  402214:	85 d2                	test   edx,edx
  402216:	75 0a                	jne    402222 <_D3std6format63__T14formattedWriteTS3std5stdio4File17LockingTextWriterTaTPvTkZ14formattedWriteFS3std5stdio4File17LockingTextWriterxAaPvkZv+0x1c2>
  402218:	bf b0 01 00 00       	mov    edi,0x1b0
  40221d:	e8 06 d1 00 00       	call   40f328 <_D3std6format8__assertFiZv>
  402222:	8b 9d 54 ff ff ff    	mov    ebx,DWORD PTR [rbp-0xac]
  402228:	8d 93 ff ff ff ff    	lea    edx,[rbx-0x1]
  40222e:	48 8b 75 f8          	mov    rsi,QWORD PTR [rbp-0x8]
  402232:	8b 7d f0             	mov    edi,DWORD PTR [rbp-0x10]
  402235:	e8 86 34 00 00       	call   4056c0 <_D3std6format19__T9getNthIntTPvTkZ9getNthIntFkPvkZi>
  40223a:	48 89 c7             	mov    rdi,rax
  40223d:	e8 4e 36 00 00       	call   405890 <_D3std4conv9__T2toTiZ9__T2toTiZ2toFiZi>
  402242:	89 85 58 ff ff ff    	mov    DWORD PTR [rbp-0xa8],eax
  402248:	39 9d f4 fe ff ff    	cmp    DWORD PTR [rbp-0x10c],ebx
  40224e:	73 0c                	jae    40225c <_D3std6format63__T14formattedWriteTS3std5stdio4File17LockingTextWriterTaTPvTkZ14formattedWriteFS3std5stdio4File17LockingTextWriterxAaPvkZv+0x1fc>
  402250:	8b 85 54 ff ff ff    	mov    eax,DWORD PTR [rbp-0xac]
  402256:	89 85 f4 fe ff ff    	mov    DWORD PTR [rbp-0x10c],eax
  40225c:	83 bd 58 ff ff ff 00 	cmp    DWORD PTR [rbp-0xa8],0x0
  402263:	79 1d                	jns    402282 <_D3std6format63__T14formattedWriteTS3std5stdio4File17LockingTextWriterTaTPvTkZ14formattedWriteFS3std5stdio4File17LockingTextWriterxAaPvkZv+0x222>
  402265:	40 b6 01             	mov    sil,0x1
  402268:	48 8d bd f8 fe ff ff 	lea    rdi,[rbp-0x108]
  40226f:	e8 4c 03 00 00       	call   4025c0 <_D3std6format18__T10FormatSpecTaZ10FormatSpec6flDashMFNdbZv>
  402274:	8b 8d 58 ff ff ff    	mov    ecx,DWORD PTR [rbp-0xa8]
  40227a:	f7 d9                	neg    ecx
  40227c:	89 8d 58 ff ff ff    	mov    DWORD PTR [rbp-0xa8],ecx
  402282:	8b 95 58 ff ff ff    	mov    edx,DWORD PTR [rbp-0xa8]
  402288:	89 95 f8 fe ff ff    	mov    DWORD PTR [rbp-0x108],edx
  40228e:	81 bd fc fe ff ff ff 	cmp    DWORD PTR [rbp-0x104],0x7fffffff
  402295:	ff ff 7f 
  402298:	75 47                	jne    4022e1 <_D3std6format63__T14formattedWriteTS3std5stdio4File17LockingTextWriterTaTPvTkZ14formattedWriteFS3std5stdio4File17LockingTextWriterxAaPvkZv+0x281>
  40229a:	8b 95 f4 fe ff ff    	mov    edx,DWORD PTR [rbp-0x10c]
  4022a0:	48 8b 75 f8          	mov    rsi,QWORD PTR [rbp-0x8]
  4022a4:	8b 7d f0             	mov    edi,DWORD PTR [rbp-0x10]
  4022a7:	e8 14 34 00 00       	call   4056c0 <_D3std6format19__T9getNthIntTPvTkZ9getNthIntFkPvkZi>
  4022ac:	48 89 c7             	mov    rdi,rax
  4022af:	e8 dc 35 00 00       	call   405890 <_D3std4conv9__T2toTiZ9__T2toTiZ2toFiZi>
  4022b4:	89 85 5c ff ff ff    	mov    DWORD PTR [rbp-0xa4],eax
  4022ba:	85 c0                	test   eax,eax
  4022bc:	78 0e                	js     4022cc <_D3std6format63__T14formattedWriteTS3std5stdio4File17LockingTextWriterTaTPvTkZ14formattedWriteFS3std5stdio4File17LockingTextWriterxAaPvkZv+0x26c>
  4022be:	8b 85 5c ff ff ff    	mov    eax,DWORD PTR [rbp-0xa4]
  4022c4:	89 85 fc fe ff ff    	mov    DWORD PTR [rbp-0x104],eax
  4022ca:	eb 0a                	jmp    4022d6 <_D3std6format63__T14formattedWriteTS3std5stdio4File17LockingTextWriterTaTPvTkZ14formattedWriteFS3std5stdio4File17LockingTextWriterxAaPvkZv+0x276>
  4022cc:	c7 85 fc fe ff ff fe 	mov    DWORD PTR [rbp-0x104],0x7ffffffe
  4022d3:	ff ff 7f 
  4022d6:	ff 85 f4 fe ff ff    	inc    DWORD PTR [rbp-0x10c]
  4022dc:	e9 8a 00 00 00       	jmp    40236b <_D3std6format63__T14formattedWriteTS3std5stdio4File17LockingTextWriterTaTPvTkZ14formattedWriteFS3std5stdio4File17LockingTextWriterxAaPvkZv+0x30b>
  4022e1:	83 bd fc fe ff ff 00 	cmp    DWORD PTR [rbp-0x104],0x0
  4022e8:	0f 89 7d 00 00 00    	jns    40236b <_D3std6format63__T14formattedWriteTS3std5stdio4File17LockingTextWriterTaTPvTkZ14formattedWriteFS3std5stdio4File17LockingTextWriterxAaPvkZv+0x30b>
  4022ee:	8b 8d fc fe ff ff    	mov    ecx,DWORD PTR [rbp-0x104]
  4022f4:	f7 d9                	neg    ecx
  4022f6:	89 8d 60 ff ff ff    	mov    DWORD PTR [rbp-0xa0],ecx
  4022fc:	85 c9                	test   ecx,ecx
  4022fe:	75 0a                	jne    40230a <_D3std6format63__T14formattedWriteTS3std5stdio4File17LockingTextWriterTaTPvTkZ14formattedWriteFS3std5stdio4File17LockingTextWriterxAaPvkZv+0x2aa>
  402300:	bf c7 01 00 00       	mov    edi,0x1c7
  402305:	e8 1e d0 00 00       	call   40f328 <_D3std6format8__assertFiZv>
  40230a:	8b 95 60 ff ff ff    	mov    edx,DWORD PTR [rbp-0xa0]
  402310:	8d 92 ff ff ff ff    	lea    edx,[rdx-0x1]
  402316:	48 8b 75 f8          	mov    rsi,QWORD PTR [rbp-0x8]
  40231a:	8b 7d f0             	mov    edi,DWORD PTR [rbp-0x10]
  40231d:	e8 9e 33 00 00       	call   4056c0 <_D3std6format19__T9getNthIntTPvTkZ9getNthIntFkPvkZi>
  402322:	48 89 c7             	mov    rdi,rax
  402325:	e8 66 35 00 00       	call   405890 <_D3std4conv9__T2toTiZ9__T2toTiZ2toFiZi>
  40232a:	89 85 64 ff ff ff    	mov    DWORD PTR [rbp-0x9c],eax
  402330:	8b 85 f4 fe ff ff    	mov    eax,DWORD PTR [rbp-0x10c]
  402336:	3b 85 60 ff ff ff    	cmp    eax,DWORD PTR [rbp-0xa0]
  40233c:	73 0c                	jae    40234a <_D3std6format63__T14formattedWriteTS3std5stdio4File17LockingTextWriterTaTPvTkZ14formattedWriteFS3std5stdio4File17LockingTextWriterxAaPvkZv+0x2ea>
  40233e:	8b 8d 60 ff ff ff    	mov    ecx,DWORD PTR [rbp-0xa0]
  402344:	89 8d f4 fe ff ff    	mov    DWORD PTR [rbp-0x10c],ecx
  40234a:	83 bd 64 ff ff ff 00 	cmp    DWORD PTR [rbp-0x9c],0x0
  402351:	78 0e                	js     402361 <_D3std6format63__T14formattedWriteTS3std5stdio4File17LockingTextWriterTaTPvTkZ14formattedWriteFS3std5stdio4File17LockingTextWriterxAaPvkZv+0x301>
  402353:	8b 95 64 ff ff ff    	mov    edx,DWORD PTR [rbp-0x9c]
  402359:	89 95 fc fe ff ff    	mov    DWORD PTR [rbp-0x104],edx
  40235f:	eb 0a                	jmp    40236b <_D3std6format63__T14formattedWriteTS3std5stdio4File17LockingTextWriterTaTPvTkZ14formattedWriteFS3std5stdio4File17LockingTextWriterxAaPvkZv+0x30b>
  402361:	c7 85 fc fe ff ff fe 	mov    DWORD PTR [rbp-0x104],0x7ffffffe
  402368:	ff ff 7f 
  40236b:	40 80 bd 01 ff ff ff 	rex cmp BYTE PTR [rbp-0xff],0x0
  402372:	00 
  402373:	0f 84 0c 01 00 00    	je     402485 <_D3std6format63__T14formattedWriteTS3std5stdio4File17LockingTextWriterTaTPvTkZ14formattedWriteFS3std5stdio4File17LockingTextWriterxAaPvkZv+0x425>
  402379:	0f b6 9d 01 ff ff ff 	movzx  ebx,BYTE PTR [rbp-0xff]
  402380:	ff cb                	dec    ebx
  402382:	89 9d 68 ff ff ff    	mov    DWORD PTR [rbp-0x98],ebx
  402388:	40 0f b6 b5 02 ff ff 	rex movzx esi,BYTE PTR [rbp-0xfe]
  40238f:	ff 
  402390:	89 b5 6c ff ff ff    	mov    DWORD PTR [rbp-0x94],esi
  402396:	8b 85 68 ff ff ff    	mov    eax,DWORD PTR [rbp-0x98]
  40239c:	3b 85 6c ff ff ff    	cmp    eax,DWORD PTR [rbp-0x94]
  4023a2:	0f 8d b8 00 00 00    	jge    402460 <_D3std6format63__T14formattedWriteTS3std5stdio4File17LockingTextWriterTaTPvTkZ14formattedWriteFS3std5stdio4File17LockingTextWriterxAaPvkZv+0x400>
  4023a8:	48 63 8d 68 ff ff ff 	movsxd rcx,DWORD PTR [rbp-0x98]
  4023af:	48 ba 02 00 00 00 00 	movabs rdx,0x2
  4023b6:	00 00 00 
  4023b9:	48 3b ca             	cmp    rcx,rdx
  4023bc:	48 89 8d 98 fe ff ff 	mov    QWORD PTR [rbp-0x168],rcx
  4023c3:	0f 83 97 00 00 00    	jae    402460 <_D3std6format63__T14formattedWriteTS3std5stdio4File17LockingTextWriterTaTPvTkZ14formattedWriteFS3std5stdio4File17LockingTextWriterxAaPvkZv+0x400>
  4023c9:	48 3b ca             	cmp    rcx,rdx
  4023cc:	48 bb 01 00 00 00 00 	movabs rbx,0x1
  4023d3:	00 00 00 
  4023d6:	72 02                	jb     4023da <_D3std6format63__T14formattedWriteTS3std5stdio4File17LockingTextWriterTaTPvTkZ14formattedWriteFS3std5stdio4File17LockingTextWriterxAaPvkZv+0x37a>
  4023d8:	8a de                	mov    bl,dh
  4023da:	72 0a                	jb     4023e6 <_D3std6format63__T14formattedWriteTS3std5stdio4File17LockingTextWriterTaTPvTkZ14formattedWriteFS3std5stdio4File17LockingTextWriterxAaPvkZv+0x386>
  4023dc:	bf d9 01 00 00       	mov    edi,0x1d9
  4023e1:	e8 26 cf 00 00       	call   40f30c <_D3std6format7__arrayZ>
  4023e6:	48 8b 85 98 fe ff ff 	mov    rax,QWORD PTR [rbp-0x168]
  4023ed:	48 c1 e0 03          	shl    rax,0x3
  4023f1:	48 8b 8c 05 c8 fe ff 	mov    rcx,QWORD PTR [rbp+rax*1-0x138]
  4023f8:	ff 
  4023f9:	48 89 4d 90          	mov    QWORD PTR [rbp-0x70],rcx
  4023fd:	48 83 ec 08          	sub    rsp,0x8
  402401:	48 83 ec 08          	sub    rsp,0x8
  402405:	48 8d 75 20          	lea    rsi,[rbp+0x20]
  402409:	48 8d 7d 98          	lea    rdi,[rbp-0x68]
  40240d:	48 89 85 a8 fe ff ff 	mov    QWORD PTR [rbp-0x158],rax
  402414:	e8 a7 de 00 00       	call   4102c0 <_D3std5stdio4File17LockingTextWriter8__cpctorMxFKxS3std5stdio4File17LockingTextWriterZv>
  402419:	48 83 c4 08          	add    rsp,0x8
  40241d:	48 8d 75 98          	lea    rsi,[rbp-0x68]
  402421:	ff 76 10             	push   QWORD PTR [rsi+0x10]
  402424:	ff 76 08             	push   QWORD PTR [rsi+0x8]
  402427:	ff 36                	push   QWORD PTR [rsi]
  402429:	85 db                	test   ebx,ebx
  40242b:	75 0a                	jne    402437 <_D3std6format63__T14formattedWriteTS3std5stdio4File17LockingTextWriterTaTPvTkZ14formattedWriteFS3std5stdio4File17LockingTextWriterxAaPvkZv+0x3d7>
  40242d:	bf d9 01 00 00       	mov    edi,0x1d9
  402432:	e8 d5 ce 00 00       	call   40f30c <_D3std6format7__arrayZ>
  402437:	48 8b 85 a8 fe ff ff 	mov    rax,QWORD PTR [rbp-0x158]
  40243e:	48 8b b4 05 d8 fe ff 	mov    rsi,QWORD PTR [rbp+rax*1-0x128]
  402445:	ff 
  402446:	48 8d bd f8 fe ff ff 	lea    rdi,[rbp-0x108]
  40244d:	48 ff 55 90          	rex.W call QWORD PTR [rbp-0x70]
  402451:	48 83 c4 20          	add    rsp,0x20
  402455:	ff 85 68 ff ff ff    	inc    DWORD PTR [rbp-0x98]
  40245b:	e9 36 ff ff ff       	jmp    402396 <_D3std6format63__T14formattedWriteTS3std5stdio4File17LockingTextWriterTaTPvTkZ14formattedWriteFS3std5stdio4File17LockingTextWriterxAaPvkZv+0x336>
  402460:	0f b6 8d 02 ff ff ff 	movzx  ecx,BYTE PTR [rbp-0xfe]
  402467:	3b 8d f4 fe ff ff    	cmp    ecx,DWORD PTR [rbp-0x10c]
  40246d:	0f 86 8d fc ff ff    	jbe    402100 <_D3std6format63__T14formattedWriteTS3std5stdio4File17LockingTextWriterTaTPvTkZ14formattedWriteFS3std5stdio4File17LockingTextWriterxAaPvkZv+0xa0>
  402473:	0f b6 95 02 ff ff ff 	movzx  edx,BYTE PTR [rbp-0xfe]
  40247a:	89 95 f4 fe ff ff    	mov    DWORD PTR [rbp-0x10c],edx
  402480:	e9 7b fc ff ff       	jmp    402100 <_D3std6format63__T14formattedWriteTS3std5stdio4File17LockingTextWriterTaTPvTkZ14formattedWriteFS3std5stdio4File17LockingTextWriterxAaPvkZv+0xa0>
  402485:	8b 85 f4 fe ff ff    	mov    eax,DWORD PTR [rbp-0x10c]
  40248b:	48 83 f8 02          	cmp    rax,0x2
  40248f:	48 bb 01 00 00 00 00 	movabs rbx,0x1
  402496:	00 00 00 
  402499:	72 02                	jb     40249d <_D3std6format63__T14formattedWriteTS3std5stdio4File17LockingTextWriterTaTPvTkZ14formattedWriteFS3std5stdio4File17LockingTextWriterxAaPvkZv+0x43d>
  40249b:	8a df                	mov    bl,bh
  40249d:	48 89 85 b0 fe ff ff 	mov    QWORD PTR [rbp-0x150],rax
  4024a4:	72 0a                	jb     4024b0 <_D3std6format63__T14formattedWriteTS3std5stdio4File17LockingTextWriterTaTPvTkZ14formattedWriteFS3std5stdio4File17LockingTextWriterxAaPvkZv+0x450>
  4024a6:	bf e2 01 00 00       	mov    edi,0x1e2
  4024ab:	e8 5c ce 00 00       	call   40f30c <_D3std6format7__arrayZ>
  4024b0:	48 8b 8d b0 fe ff ff 	mov    rcx,QWORD PTR [rbp-0x150]
  4024b7:	48 c1 e1 03          	shl    rcx,0x3
  4024bb:	48 8b 94 0d c8 fe ff 	mov    rdx,QWORD PTR [rbp+rcx*1-0x138]
  4024c2:	ff 
  4024c3:	48 89 55 d0          	mov    QWORD PTR [rbp-0x30],rdx
  4024c7:	48 83 ec 08          	sub    rsp,0x8
  4024cb:	48 83 ec 08          	sub    rsp,0x8
  4024cf:	48 8d 75 20          	lea    rsi,[rbp+0x20]
  4024d3:	48 8d 7d d8          	lea    rdi,[rbp-0x28]
  4024d7:	48 89 8d c0 fe ff ff 	mov    QWORD PTR [rbp-0x140],rcx
  4024de:	e8 dd dd 00 00       	call   4102c0 <_D3std5stdio4File17LockingTextWriter8__cpctorMxFKxS3std5stdio4File17LockingTextWriterZv>
  4024e3:	48 83 c4 08          	add    rsp,0x8
  4024e7:	48 8d 75 d8          	lea    rsi,[rbp-0x28]
  4024eb:	ff 76 10             	push   QWORD PTR [rsi+0x10]
  4024ee:	ff 76 08             	push   QWORD PTR [rsi+0x8]
  4024f1:	ff 36                	push   QWORD PTR [rsi]
  4024f3:	85 db                	test   ebx,ebx
  4024f5:	75 0a                	jne    402501 <_D3std6format63__T14formattedWriteTS3std5stdio4File17LockingTextWriterTaTPvTkZ14formattedWriteFS3std5stdio4File17LockingTextWriterxAaPvkZv+0x4a1>
  4024f7:	bf e2 01 00 00       	mov    edi,0x1e2
  4024fc:	e8 0b ce 00 00       	call   40f30c <_D3std6format7__arrayZ>
  402501:	48 8b 85 c0 fe ff ff 	mov    rax,QWORD PTR [rbp-0x140]
  402508:	48 8b b4 05 d8 fe ff 	mov    rsi,QWORD PTR [rbp+rax*1-0x128]
  40250f:	ff 
  402510:	48 8d bd f8 fe ff ff 	lea    rdi,[rbp-0x108]
  402517:	48 ff 55 d0          	rex.W call QWORD PTR [rbp-0x30]
  40251b:	48 83 c4 20          	add    rsp,0x20
  40251f:	ff 85 f4 fe ff ff    	inc    DWORD PTR [rbp-0x10c]
  402525:	e9 d6 fb ff ff       	jmp    402100 <_D3std6format63__T14formattedWriteTS3std5stdio4File17LockingTextWriterTaTPvTkZ14formattedWriteFS3std5stdio4File17LockingTextWriterxAaPvkZv+0xa0>
  40252a:	68 39 25 40 00       	push   0x402539
  40252f:	48 8d 7d 20          	lea    rdi,[rbp+0x20]
  402533:	e8 20 dd 00 00       	call   410258 <_D3std5stdio4File17LockingTextWriter6__dtorMFZv>
  402538:	c3                   	ret    
  402539:	41 5f                	pop    r15
  40253b:	41 5e                	pop    r14
  40253d:	41 5d                	pop    r13
  40253f:	41 5c                	pop    r12
  402541:	5b                   	pop    rbx
  402542:	c9                   	leave  
  402543:	c3                   	ret    

0000000000402544 <_D3std6format63__T14formattedWriteTS3std5stdio4File17LockingTextWriterTaTPvTkZ14formattedWriteFS3std5stdio4File17LockingTextWriterxAaPvkZv14__dgliteral976MFZAya>:
  402544:	55                   	push   rbp
  402545:	48 8b ec             	mov    rbp,rsp
  402548:	48 83 ec 10          	sub    rsp,0x10
  40254c:	48 89 7d f8          	mov    QWORD PTR [rbp-0x8],rdi
  402550:	ff 35 62 3a 02 00    	push   QWORD PTR [rip+0x23a62]        # 425fb8 <_TMP10+0x8>
  402556:	ff 35 54 3a 02 00    	push   QWORD PTR [rip+0x23a54]        # 425fb0 <_TMP10>
  40255c:	48 8b 45 f8          	mov    rax,QWORD PTR [rbp-0x8]
  402560:	ff 70 18             	push   QWORD PTR [rax+0x18]
  402563:	ff 70 10             	push   QWORD PTR [rax+0x10]
  402566:	e8 69 2f 00 00       	call   4054d4 <_D3std4conv17__T4textTAyaTxAaZ4textFAyaxAaZAya>
  40256b:	48 83 c4 20          	add    rsp,0x20
  40256f:	c9                   	leave  
  402570:	c3                   	ret    
  402571:	90                   	nop
  402572:	90                   	nop
  402573:	90                   	nop

0000000000402574 <_D3std6format18__T10FormatSpecTaZ10FormatSpec6flDashMxFNdZb>:
  402574:	55                   	push   rbp
  402575:	48 8b ec             	mov    rbp,rsp
  402578:	48 83 ec 10          	sub    rsp,0x10
  40257c:	48 89 7d f8          	mov    QWORD PTR [rbp-0x8],rdi
  402580:	48 83 7d f8 00       	cmp    QWORD PTR [rbp-0x8],0x0
  402585:	75 22                	jne    4025a9 <_D3std6format18__T10FormatSpecTaZ10FormatSpec6flDashMxFNdZb+0x35>
  402587:	bf 82 02 00 00       	mov    edi,0x282
  40258c:	ff 35 76 3a 02 00    	push   QWORD PTR [rip+0x23a76]        # 426008 <_TMP11+0x8>
  402592:	ff 35 68 3a 02 00    	push   QWORD PTR [rip+0x23a68]        # 426000 <_TMP11>
  402598:	ff 35 8a 3a 02 00    	push   QWORD PTR [rip+0x23a8a]        # 426028 <_TMP12+0x8>
  40259e:	ff 35 7c 3a 02 00    	push   QWORD PTR [rip+0x23a7c]        # 426020 <_TMP12>
  4025a4:	e8 83 87 00 00       	call   40ad2c <_d_assert_msg>
  4025a9:	48 8b 4d f8          	mov    rcx,QWORD PTR [rbp-0x8]
  4025ad:	0f b6 41 0b          	movzx  eax,BYTE PTR [rcx+0xb]
  4025b1:	25 01 00 00 00       	and    eax,0x1
  4025b6:	f7 d8                	neg    eax
  4025b8:	19 c0                	sbb    eax,eax
  4025ba:	f7 d8                	neg    eax
  4025bc:	c9                   	leave  
  4025bd:	c3                   	ret    
  4025be:	90                   	nop
  4025bf:	90                   	nop

00000000004025c0 <_D3std6format18__T10FormatSpecTaZ10FormatSpec6flDashMFNdbZv>:
  4025c0:	55                   	push   rbp
  4025c1:	48 8b ec             	mov    rbp,rsp
  4025c4:	48 83 ec 10          	sub    rsp,0x10
  4025c8:	48 89 7d f0          	mov    QWORD PTR [rbp-0x10],rdi
  4025cc:	89 75 f8             	mov    DWORD PTR [rbp-0x8],esi
  4025cf:	48 83 7d f0 00       	cmp    QWORD PTR [rbp-0x10],0x0
  4025d4:	75 22                	jne    4025f8 <_D3std6format18__T10FormatSpecTaZ10FormatSpec6flDashMFNdbZv+0x38>
  4025d6:	bf 83 02 00 00       	mov    edi,0x283
  4025db:	ff 35 27 3a 02 00    	push   QWORD PTR [rip+0x23a27]        # 426008 <_TMP11+0x8>
  4025e1:	ff 35 19 3a 02 00    	push   QWORD PTR [rip+0x23a19]        # 426000 <_TMP11>
  4025e7:	ff 35 3b 3a 02 00    	push   QWORD PTR [rip+0x23a3b]        # 426028 <_TMP12+0x8>
  4025ed:	ff 35 2d 3a 02 00    	push   QWORD PTR [rip+0x23a2d]        # 426020 <_TMP12>
  4025f3:	e8 34 87 00 00       	call   40ad2c <_d_assert_msg>
  4025f8:	40 80 7d f8 00       	rex cmp BYTE PTR [rbp-0x8],0x0
  4025fd:	74 0a                	je     402609 <_D3std6format18__T10FormatSpecTaZ10FormatSpec6flDashMFNdbZv+0x49>
  4025ff:	48 8b 45 f0          	mov    rax,QWORD PTR [rbp-0x10]
  402603:	80 48 0b 01          	or     BYTE PTR [rax+0xb],0x1
  402607:	eb 08                	jmp    402611 <_D3std6format18__T10FormatSpecTaZ10FormatSpec6flDashMFNdbZv+0x51>
  402609:	48 8b 4d f0          	mov    rcx,QWORD PTR [rbp-0x10]
  40260d:	80 61 0b fe          	and    BYTE PTR [rcx+0xb],0xfe
  402611:	c9                   	leave  
  402612:	c3                   	ret    
  402613:	90                   	nop

0000000000402614 <_D3std6format18__T10FormatSpecTaZ10FormatSpec6flZeroMxFNdZb>:
  402614:	55                   	push   rbp
  402615:	48 8b ec             	mov    rbp,rsp
  402618:	48 83 ec 10          	sub    rsp,0x10
  40261c:	48 89 7d f8          	mov    QWORD PTR [rbp-0x8],rdi
  402620:	48 83 7d f8 00       	cmp    QWORD PTR [rbp-0x8],0x0
  402625:	75 22                	jne    402649 <_D3std6format18__T10FormatSpecTaZ10FormatSpec6flZeroMxFNdZb+0x35>
  402627:	bf 84 02 00 00       	mov    edi,0x284
  40262c:	ff 35 d6 39 02 00    	push   QWORD PTR [rip+0x239d6]        # 426008 <_TMP11+0x8>
  402632:	ff 35 c8 39 02 00    	push   QWORD PTR [rip+0x239c8]        # 426000 <_TMP11>
  402638:	ff 35 ea 39 02 00    	push   QWORD PTR [rip+0x239ea]        # 426028 <_TMP12+0x8>
  40263e:	ff 35 dc 39 02 00    	push   QWORD PTR [rip+0x239dc]        # 426020 <_TMP12>
  402644:	e8 e3 86 00 00       	call   40ad2c <_d_assert_msg>
  402649:	48 8b 4d f8          	mov    rcx,QWORD PTR [rbp-0x8]
  40264d:	0f b6 41 0b          	movzx  eax,BYTE PTR [rcx+0xb]
  402651:	25 02 00 00 00       	and    eax,0x2
  402656:	f7 d8                	neg    eax
  402658:	19 c0                	sbb    eax,eax
  40265a:	f7 d8                	neg    eax
  40265c:	c9                   	leave  
  40265d:	c3                   	ret    
  40265e:	90                   	nop
  40265f:	90                   	nop

0000000000402660 <_D3std6format18__T10FormatSpecTaZ10FormatSpec6flZeroMFNdbZv>:
  402660:	55                   	push   rbp
  402661:	48 8b ec             	mov    rbp,rsp
  402664:	48 83 ec 10          	sub    rsp,0x10
  402668:	48 89 7d f0          	mov    QWORD PTR [rbp-0x10],rdi
  40266c:	89 75 f8             	mov    DWORD PTR [rbp-0x8],esi
  40266f:	48 83 7d f0 00       	cmp    QWORD PTR [rbp-0x10],0x0
  402674:	75 22                	jne    402698 <_D3std6format18__T10FormatSpecTaZ10FormatSpec6flZeroMFNdbZv+0x38>
  402676:	bf 85 02 00 00       	mov    edi,0x285
  40267b:	ff 35 87 39 02 00    	push   QWORD PTR [rip+0x23987]        # 426008 <_TMP11+0x8>
  402681:	ff 35 79 39 02 00    	push   QWORD PTR [rip+0x23979]        # 426000 <_TMP11>
  402687:	ff 35 9b 39 02 00    	push   QWORD PTR [rip+0x2399b]        # 426028 <_TMP12+0x8>
  40268d:	ff 35 8d 39 02 00    	push   QWORD PTR [rip+0x2398d]        # 426020 <_TMP12>
  402693:	e8 94 86 00 00       	call   40ad2c <_d_assert_msg>
  402698:	40 80 7d f8 00       	rex cmp BYTE PTR [rbp-0x8],0x0
  40269d:	74 0a                	je     4026a9 <_D3std6format18__T10FormatSpecTaZ10FormatSpec6flZeroMFNdbZv+0x49>
  40269f:	48 8b 45 f0          	mov    rax,QWORD PTR [rbp-0x10]
  4026a3:	80 48 0b 02          	or     BYTE PTR [rax+0xb],0x2
  4026a7:	eb 08                	jmp    4026b1 <_D3std6format18__T10FormatSpecTaZ10FormatSpec6flZeroMFNdbZv+0x51>
  4026a9:	48 8b 4d f0          	mov    rcx,QWORD PTR [rbp-0x10]
  4026ad:	80 61 0b fd          	and    BYTE PTR [rcx+0xb],0xfd
  4026b1:	c9                   	leave  
  4026b2:	c3                   	ret    
  4026b3:	90                   	nop

00000000004026b4 <_D3std6format18__T10FormatSpecTaZ10FormatSpec7flSpaceMxFNdZb>:
  4026b4:	55                   	push   rbp
  4026b5:	48 8b ec             	mov    rbp,rsp
  4026b8:	48 83 ec 10          	sub    rsp,0x10
  4026bc:	48 89 7d f8          	mov    QWORD PTR [rbp-0x8],rdi
  4026c0:	48 83 7d f8 00       	cmp    QWORD PTR [rbp-0x8],0x0
  4026c5:	75 22                	jne    4026e9 <_D3std6format18__T10FormatSpecTaZ10FormatSpec7flSpaceMxFNdZb+0x35>
  4026c7:	bf 86 02 00 00       	mov    edi,0x286
  4026cc:	ff 35 36 39 02 00    	push   QWORD PTR [rip+0x23936]        # 426008 <_TMP11+0x8>
  4026d2:	ff 35 28 39 02 00    	push   QWORD PTR [rip+0x23928]        # 426000 <_TMP11>
  4026d8:	ff 35 4a 39 02 00    	push   QWORD PTR [rip+0x2394a]        # 426028 <_TMP12+0x8>
  4026de:	ff 35 3c 39 02 00    	push   QWORD PTR [rip+0x2393c]        # 426020 <_TMP12>
  4026e4:	e8 43 86 00 00       	call   40ad2c <_d_assert_msg>
  4026e9:	48 8b 4d f8          	mov    rcx,QWORD PTR [rbp-0x8]
  4026ed:	0f b6 41 0b          	movzx  eax,BYTE PTR [rcx+0xb]
  4026f1:	25 04 00 00 00       	and    eax,0x4
  4026f6:	f7 d8                	neg    eax
  4026f8:	19 c0                	sbb    eax,eax
  4026fa:	f7 d8                	neg    eax
  4026fc:	c9                   	leave  
  4026fd:	c3                   	ret    
  4026fe:	90                   	nop
  4026ff:	90                   	nop

0000000000402700 <_D3std6format18__T10FormatSpecTaZ10FormatSpec7flSpaceMFNdbZv>:
  402700:	55                   	push   rbp
  402701:	48 8b ec             	mov    rbp,rsp
  402704:	48 83 ec 10          	sub    rsp,0x10
  402708:	48 89 7d f0          	mov    QWORD PTR [rbp-0x10],rdi
  40270c:	89 75 f8             	mov    DWORD PTR [rbp-0x8],esi
  40270f:	48 83 7d f0 00       	cmp    QWORD PTR [rbp-0x10],0x0
  402714:	75 22                	jne    402738 <_D3std6format18__T10FormatSpecTaZ10FormatSpec7flSpaceMFNdbZv+0x38>
  402716:	bf 87 02 00 00       	mov    edi,0x287
  40271b:	ff 35 e7 38 02 00    	push   QWORD PTR [rip+0x238e7]        # 426008 <_TMP11+0x8>
  402721:	ff 35 d9 38 02 00    	push   QWORD PTR [rip+0x238d9]        # 426000 <_TMP11>
  402727:	ff 35 fb 38 02 00    	push   QWORD PTR [rip+0x238fb]        # 426028 <_TMP12+0x8>
  40272d:	ff 35 ed 38 02 00    	push   QWORD PTR [rip+0x238ed]        # 426020 <_TMP12>
  402733:	e8 f4 85 00 00       	call   40ad2c <_d_assert_msg>
  402738:	40 80 7d f8 00       	rex cmp BYTE PTR [rbp-0x8],0x0
  40273d:	74 0a                	je     402749 <_D3std6format18__T10FormatSpecTaZ10FormatSpec7flSpaceMFNdbZv+0x49>
  40273f:	48 8b 45 f0          	mov    rax,QWORD PTR [rbp-0x10]
  402743:	80 48 0b 04          	or     BYTE PTR [rax+0xb],0x4
  402747:	eb 08                	jmp    402751 <_D3std6format18__T10FormatSpecTaZ10FormatSpec7flSpaceMFNdbZv+0x51>
  402749:	48 8b 4d f0          	mov    rcx,QWORD PTR [rbp-0x10]
  40274d:	80 61 0b fb          	and    BYTE PTR [rcx+0xb],0xfb
  402751:	c9                   	leave  
  402752:	c3                   	ret    
  402753:	90                   	nop

0000000000402754 <_D3std6format18__T10FormatSpecTaZ10FormatSpec6flPlusMxFNdZb>:
  402754:	55                   	push   rbp
  402755:	48 8b ec             	mov    rbp,rsp
  402758:	48 83 ec 10          	sub    rsp,0x10
  40275c:	48 89 7d f8          	mov    QWORD PTR [rbp-0x8],rdi
  402760:	48 83 7d f8 00       	cmp    QWORD PTR [rbp-0x8],0x0
  402765:	75 22                	jne    402789 <_D3std6format18__T10FormatSpecTaZ10FormatSpec6flPlusMxFNdZb+0x35>
  402767:	bf 88 02 00 00       	mov    edi,0x288
  40276c:	ff 35 96 38 02 00    	push   QWORD PTR [rip+0x23896]        # 426008 <_TMP11+0x8>
  402772:	ff 35 88 38 02 00    	push   QWORD PTR [rip+0x23888]        # 426000 <_TMP11>
  402778:	ff 35 aa 38 02 00    	push   QWORD PTR [rip+0x238aa]        # 426028 <_TMP12+0x8>
  40277e:	ff 35 9c 38 02 00    	push   QWORD PTR [rip+0x2389c]        # 426020 <_TMP12>
  402784:	e8 a3 85 00 00       	call   40ad2c <_d_assert_msg>
  402789:	48 8b 4d f8          	mov    rcx,QWORD PTR [rbp-0x8]
  40278d:	0f b6 41 0b          	movzx  eax,BYTE PTR [rcx+0xb]
  402791:	25 08 00 00 00       	and    eax,0x8
  402796:	f7 d8                	neg    eax
  402798:	19 c0                	sbb    eax,eax
  40279a:	f7 d8                	neg    eax
  40279c:	c9                   	leave  
  40279d:	c3                   	ret    
  40279e:	90                   	nop
  40279f:	90                   	nop

00000000004027a0 <_D3std6format18__T10FormatSpecTaZ10FormatSpec6flPlusMFNdbZv>:
  4027a0:	55                   	push   rbp
  4027a1:	48 8b ec             	mov    rbp,rsp
  4027a4:	48 83 ec 10          	sub    rsp,0x10
  4027a8:	48 89 7d f0          	mov    QWORD PTR [rbp-0x10],rdi
  4027ac:	89 75 f8             	mov    DWORD PTR [rbp-0x8],esi
  4027af:	48 83 7d f0 00       	cmp    QWORD PTR [rbp-0x10],0x0
  4027b4:	75 22                	jne    4027d8 <_D3std6format18__T10FormatSpecTaZ10FormatSpec6flPlusMFNdbZv+0x38>
  4027b6:	bf 89 02 00 00       	mov    edi,0x289
  4027bb:	ff 35 47 38 02 00    	push   QWORD PTR [rip+0x23847]        # 426008 <_TMP11+0x8>
  4027c1:	ff 35 39 38 02 00    	push   QWORD PTR [rip+0x23839]        # 426000 <_TMP11>
  4027c7:	ff 35 5b 38 02 00    	push   QWORD PTR [rip+0x2385b]        # 426028 <_TMP12+0x8>
  4027cd:	ff 35 4d 38 02 00    	push   QWORD PTR [rip+0x2384d]        # 426020 <_TMP12>
  4027d3:	e8 54 85 00 00       	call   40ad2c <_d_assert_msg>
  4027d8:	40 80 7d f8 00       	rex cmp BYTE PTR [rbp-0x8],0x0
  4027dd:	74 0a                	je     4027e9 <_D3std6format18__T10FormatSpecTaZ10FormatSpec6flPlusMFNdbZv+0x49>
  4027df:	48 8b 45 f0          	mov    rax,QWORD PTR [rbp-0x10]
  4027e3:	80 48 0b 08          	or     BYTE PTR [rax+0xb],0x8
  4027e7:	eb 08                	jmp    4027f1 <_D3std6format18__T10FormatSpecTaZ10FormatSpec6flPlusMFNdbZv+0x51>
  4027e9:	48 8b 4d f0          	mov    rcx,QWORD PTR [rbp-0x10]
  4027ed:	80 61 0b f7          	and    BYTE PTR [rcx+0xb],0xf7
  4027f1:	c9                   	leave  
  4027f2:	c3                   	ret    
  4027f3:	90                   	nop

00000000004027f4 <_D3std6format18__T10FormatSpecTaZ10FormatSpec6flHashMxFNdZb>:
  4027f4:	55                   	push   rbp
  4027f5:	48 8b ec             	mov    rbp,rsp
  4027f8:	48 83 ec 10          	sub    rsp,0x10
  4027fc:	48 89 7d f8          	mov    QWORD PTR [rbp-0x8],rdi
  402800:	48 83 7d f8 00       	cmp    QWORD PTR [rbp-0x8],0x0
  402805:	75 22                	jne    402829 <_D3std6format18__T10FormatSpecTaZ10FormatSpec6flHashMxFNdZb+0x35>
  402807:	bf 8a 02 00 00       	mov    edi,0x28a
  40280c:	ff 35 f6 37 02 00    	push   QWORD PTR [rip+0x237f6]        # 426008 <_TMP11+0x8>
  402812:	ff 35 e8 37 02 00    	push   QWORD PTR [rip+0x237e8]        # 426000 <_TMP11>
  402818:	ff 35 0a 38 02 00    	push   QWORD PTR [rip+0x2380a]        # 426028 <_TMP12+0x8>
  40281e:	ff 35 fc 37 02 00    	push   QWORD PTR [rip+0x237fc]        # 426020 <_TMP12>
  402824:	e8 03 85 00 00       	call   40ad2c <_d_assert_msg>
  402829:	48 8b 4d f8          	mov    rcx,QWORD PTR [rbp-0x8]
  40282d:	0f b6 41 0b          	movzx  eax,BYTE PTR [rcx+0xb]
  402831:	25 10 00 00 00       	and    eax,0x10
  402836:	f7 d8                	neg    eax
  402838:	19 c0                	sbb    eax,eax
  40283a:	f7 d8                	neg    eax
  40283c:	c9                   	leave  
  40283d:	c3                   	ret    
  40283e:	90                   	nop
  40283f:	90                   	nop

0000000000402840 <_D3std6format18__T10FormatSpecTaZ10FormatSpec6flHashMFNdbZv>:
  402840:	55                   	push   rbp
  402841:	48 8b ec             	mov    rbp,rsp
  402844:	48 83 ec 10          	sub    rsp,0x10
  402848:	48 89 7d f0          	mov    QWORD PTR [rbp-0x10],rdi
  40284c:	89 75 f8             	mov    DWORD PTR [rbp-0x8],esi
  40284f:	48 83 7d f0 00       	cmp    QWORD PTR [rbp-0x10],0x0
  402854:	75 22                	jne    402878 <_D3std6format18__T10FormatSpecTaZ10FormatSpec6flHashMFNdbZv+0x38>
  402856:	bf 8b 02 00 00       	mov    edi,0x28b
  40285b:	ff 35 a7 37 02 00    	push   QWORD PTR [rip+0x237a7]        # 426008 <_TMP11+0x8>
  402861:	ff 35 99 37 02 00    	push   QWORD PTR [rip+0x23799]        # 426000 <_TMP11>
  402867:	ff 35 bb 37 02 00    	push   QWORD PTR [rip+0x237bb]        # 426028 <_TMP12+0x8>
  40286d:	ff 35 ad 37 02 00    	push   QWORD PTR [rip+0x237ad]        # 426020 <_TMP12>
  402873:	e8 b4 84 00 00       	call   40ad2c <_d_assert_msg>
  402878:	40 80 7d f8 00       	rex cmp BYTE PTR [rbp-0x8],0x0
  40287d:	74 0a                	je     402889 <_D3std6format18__T10FormatSpecTaZ10FormatSpec6flHashMFNdbZv+0x49>
  40287f:	48 8b 45 f0          	mov    rax,QWORD PTR [rbp-0x10]
  402883:	80 48 0b 10          	or     BYTE PTR [rax+0xb],0x10
  402887:	eb 08                	jmp    402891 <_D3std6format18__T10FormatSpecTaZ10FormatSpec6flHashMFNdbZv+0x51>
  402889:	48 8b 4d f0          	mov    rcx,QWORD PTR [rbp-0x10]
  40288d:	80 61 0b ef          	and    BYTE PTR [rcx+0xb],0xef
  402891:	c9                   	leave  
  402892:	c3                   	ret    
  402893:	90                   	nop

0000000000402894 <_D3std6format18__T10FormatSpecTaZ10FormatSpec6__ctorMFxAaZS3std6format18__T10FormatSpecTaZ10FormatSpec>:
  402894:	55                   	push   rbp
  402895:	48 8b ec             	mov    rbp,rsp
  402898:	48 83 ec 08          	sub    rsp,0x8
  40289c:	48 89 7d f8          	mov    QWORD PTR [rbp-0x8],rdi
  4028a0:	48 8b 55 18          	mov    rdx,QWORD PTR [rbp+0x18]
  4028a4:	48 8b 45 10          	mov    rax,QWORD PTR [rbp+0x10]
  4028a8:	48 8b 4d f8          	mov    rcx,QWORD PTR [rbp-0x8]
  4028ac:	48 89 41 30          	mov    QWORD PTR [rcx+0x30],rax
  4028b0:	48 89 51 38          	mov    QWORD PTR [rcx+0x38],rdx
  4028b4:	48 89 c8             	mov    rax,rcx
  4028b7:	c9                   	leave  
  4028b8:	c3                   	ret    
  4028b9:	90                   	nop
  4028ba:	90                   	nop
  4028bb:	90                   	nop

00000000004028bc <_D3std6format18__T10FormatSpecTaZ10FormatSpec6fillUpMFZv>:
  4028bc:	55                   	push   rbp
  4028bd:	48 8b ec             	mov    rbp,rsp
  4028c0:	48 81 ec 88 03 00 00 	sub    rsp,0x388
  4028c7:	53                   	push   rbx
  4028c8:	48 89 7d f0          	mov    QWORD PTR [rbp-0x10],rdi
  4028cc:	48 8b 45 f0          	mov    rax,QWORD PTR [rbp-0x10]
  4028d0:	c6 40 0b 00          	mov    BYTE PTR [rax+0xb],0x0
  4028d4:	48 8b 4d f0          	mov    rcx,QWORD PTR [rbp-0x10]
  4028d8:	c7 01 00 00 00 00    	mov    DWORD PTR [rcx],0x0
  4028de:	48 8b 55 f0          	mov    rdx,QWORD PTR [rbp-0x10]
  4028e2:	c7 42 04 fe ff ff 7f 	mov    DWORD PTR [rdx+0x4],0x7ffffffe
  4028e9:	48 8b 5d f0          	mov    rbx,QWORD PTR [rbp-0x10]
  4028ed:	48 c7 43 10 00 00 00 	mov    QWORD PTR [rbx+0x10],0x0
  4028f4:	00 
  4028f5:	48 c7 43 18 00 00 00 	mov    QWORD PTR [rbx+0x18],0x0
  4028fc:	00 
  4028fd:	48 c7 85 90 fc ff ff 	mov    QWORD PTR [rbp-0x370],0x0
  402904:	00 00 00 00 
  402908:	48 8b 75 f0          	mov    rsi,QWORD PTR [rbp-0x10]
  40290c:	48 8b 46 30          	mov    rax,QWORD PTR [rsi+0x30]
  402910:	48 3b 85 90 fc ff ff 	cmp    rax,QWORD PTR [rbp-0x370]
  402917:	0f 86 df 0f 00 00    	jbe    4038fc <_D3std6format18__T10FormatSpecTaZ10FormatSpec6fillUpMFZv+0x1040>
  40291d:	48 8b 8d 90 fc ff ff 	mov    rcx,QWORD PTR [rbp-0x370]
  402924:	48 8b 55 f0          	mov    rdx,QWORD PTR [rbp-0x10]
  402928:	48 8b 42 30          	mov    rax,QWORD PTR [rdx+0x30]
  40292c:	48 8b 52 38          	mov    rdx,QWORD PTR [rdx+0x38]
  402930:	48 89 85 a0 fc ff ff 	mov    QWORD PTR [rbp-0x360],rax
  402937:	48 89 95 a8 fc ff ff 	mov    QWORD PTR [rbp-0x358],rdx
  40293e:	48 3b c8             	cmp    rcx,rax
  402941:	72 0a                	jb     40294d <_D3std6format18__T10FormatSpecTaZ10FormatSpec6fillUpMFZv+0x91>
  402943:	bf 0d 03 00 00       	mov    edi,0x30d
  402948:	e8 bf c9 00 00       	call   40f30c <_D3std6format7__arrayZ>
  40294d:	48 8b 95 a8 fc ff ff 	mov    rdx,QWORD PTR [rbp-0x358]
  402954:	48 8b 85 a0 fc ff ff 	mov    rax,QWORD PTR [rbp-0x360]
  40295b:	48 8b 8d 90 fc ff ff 	mov    rcx,QWORD PTR [rbp-0x370]
  402962:	40 0f b6 34 0a       	rex movzx esi,BYTE PTR [rdx+rcx*1]
  402967:	83 fe 28             	cmp    esi,0x28
  40296a:	0f 84 95 00 00 00    	je     402a05 <_D3std6format18__T10FormatSpecTaZ10FormatSpec6fillUpMFZv+0x149>
  402970:	83 fe 2d             	cmp    esi,0x2d
  402973:	0f 84 83 06 00 00    	je     402ffc <_D3std6format18__T10FormatSpecTaZ10FormatSpec6fillUpMFZv+0x740>
  402979:	83 fe 2b             	cmp    esi,0x2b
  40297c:	0f 84 92 06 00 00    	je     403014 <_D3std6format18__T10FormatSpecTaZ10FormatSpec6fillUpMFZv+0x758>
  402982:	83 fe 23             	cmp    esi,0x23
  402985:	0f 84 a1 06 00 00    	je     40302c <_D3std6format18__T10FormatSpecTaZ10FormatSpec6fillUpMFZv+0x770>
  40298b:	83 fe 30             	cmp    esi,0x30
  40298e:	0f 84 b0 06 00 00    	je     403044 <_D3std6format18__T10FormatSpecTaZ10FormatSpec6fillUpMFZv+0x788>
  402994:	83 fe 20             	cmp    esi,0x20
  402997:	0f 84 bf 06 00 00    	je     40305c <_D3std6format18__T10FormatSpecTaZ10FormatSpec6fillUpMFZv+0x7a0>
  40299d:	83 fe 2a             	cmp    esi,0x2a
  4029a0:	0f 84 ce 06 00 00    	je     403074 <_D3std6format18__T10FormatSpecTaZ10FormatSpec6fillUpMFZv+0x7b8>
  4029a6:	83 fe 31             	cmp    esi,0x31
  4029a9:	0f 84 42 08 00 00    	je     4031f1 <_D3std6format18__T10FormatSpecTaZ10FormatSpec6fillUpMFZv+0x935>
  4029af:	83 fe 32             	cmp    esi,0x32
  4029b2:	0f 84 39 08 00 00    	je     4031f1 <_D3std6format18__T10FormatSpecTaZ10FormatSpec6fillUpMFZv+0x935>
  4029b8:	83 fe 33             	cmp    esi,0x33
  4029bb:	0f 84 30 08 00 00    	je     4031f1 <_D3std6format18__T10FormatSpecTaZ10FormatSpec6fillUpMFZv+0x935>
  4029c1:	83 fe 34             	cmp    esi,0x34
  4029c4:	0f 84 27 08 00 00    	je     4031f1 <_D3std6format18__T10FormatSpecTaZ10FormatSpec6fillUpMFZv+0x935>
  4029ca:	83 fe 35             	cmp    esi,0x35
  4029cd:	0f 84 1e 08 00 00    	je     4031f1 <_D3std6format18__T10FormatSpecTaZ10FormatSpec6fillUpMFZv+0x935>
  4029d3:	83 fe 36             	cmp    esi,0x36
  4029d6:	0f 84 15 08 00 00    	je     4031f1 <_D3std6format18__T10FormatSpecTaZ10FormatSpec6fillUpMFZv+0x935>
  4029dc:	83 fe 37             	cmp    esi,0x37
  4029df:	0f 84 0c 08 00 00    	je     4031f1 <_D3std6format18__T10FormatSpecTaZ10FormatSpec6fillUpMFZv+0x935>
  4029e5:	83 fe 38             	cmp    esi,0x38
  4029e8:	0f 84 03 08 00 00    	je     4031f1 <_D3std6format18__T10FormatSpecTaZ10FormatSpec6fillUpMFZv+0x935>
  4029ee:	83 fe 39             	cmp    esi,0x39
  4029f1:	0f 84 fa 07 00 00    	je     4031f1 <_D3std6format18__T10FormatSpecTaZ10FormatSpec6fillUpMFZv+0x935>
  4029f7:	83 fe 2e             	cmp    esi,0x2e
  4029fa:	0f 84 90 0a 00 00    	je     403490 <_D3std6format18__T10FormatSpecTaZ10FormatSpec6fillUpMFZv+0xbd4>
  402a00:	e9 53 0e 00 00       	jmp    403858 <_D3std6format18__T10FormatSpecTaZ10FormatSpec6fillUpMFZv+0xf9c>
  402a05:	48 8b 9d 90 fc ff ff 	mov    rbx,QWORD PTR [rbp-0x370]
  402a0c:	48 ff c3             	inc    rbx
  402a0f:	48 89 9d b0 fc ff ff 	mov    QWORD PTR [rbp-0x350],rbx
  402a16:	c7 85 b8 fc ff ff 00 	mov    DWORD PTR [rbp-0x348],0x0
  402a1d:	00 00 00 
  402a20:	48 8b 7d f0          	mov    rdi,QWORD PTR [rbp-0x10]
  402a24:	48 8b 77 30          	mov    rsi,QWORD PTR [rdi+0x30]
  402a28:	48 3b b5 b0 fc ff ff 	cmp    rsi,QWORD PTR [rbp-0x350]
  402a2f:	48 be 01 00 00 00 00 	movabs rsi,0x1
  402a36:	00 00 00 
  402a39:	77 03                	ja     402a3e <_D3std6format18__T10FormatSpecTaZ10FormatSpec6fillUpMFZv+0x182>
  402a3b:	48 31 f6             	xor    rsi,rsi
  402a3e:	48 8d 7d f0          	lea    rdi,[rbp-0x10]
  402a42:	e8 1d 0f 00 00       	call   403964 <_D3std6format18__T10FormatSpecTaZ10FormatSpec6fillUpMFZv5checkMFbZv>
  402a47:	48 8b 85 b0 fc ff ff 	mov    rax,QWORD PTR [rbp-0x350]
  402a4e:	48 ff 85 b0 fc ff ff 	inc    QWORD PTR [rbp-0x350]
  402a55:	48 89 85 d0 fc ff ff 	mov    QWORD PTR [rbp-0x330],rax
  402a5c:	48 8b 4d f0          	mov    rcx,QWORD PTR [rbp-0x10]
  402a60:	48 8b 51 38          	mov    rdx,QWORD PTR [rcx+0x38]
  402a64:	48 8b 59 30          	mov    rbx,QWORD PTR [rcx+0x30]
  402a68:	48 89 9d c0 fc ff ff 	mov    QWORD PTR [rbp-0x340],rbx
  402a6f:	48 89 95 c8 fc ff ff 	mov    QWORD PTR [rbp-0x338],rdx
  402a76:	48 3b c3             	cmp    rax,rbx
  402a79:	72 0a                	jb     402a85 <_D3std6format18__T10FormatSpecTaZ10FormatSpec6fillUpMFZv+0x1c9>
  402a7b:	bf 1c 03 00 00       	mov    edi,0x31c
  402a80:	e8 87 c8 00 00       	call   40f30c <_D3std6format7__arrayZ>
  402a85:	48 8b 95 c8 fc ff ff 	mov    rdx,QWORD PTR [rbp-0x338]
  402a8c:	48 8b c3             	mov    rax,rbx
  402a8f:	48 8b b5 d0 fc ff ff 	mov    rsi,QWORD PTR [rbp-0x330]
  402a96:	8a 0c 32             	mov    cl,BYTE PTR [rdx+rsi*1]
  402a99:	80 f9 25             	cmp    cl,0x25
  402a9c:	0f 85 7e ff ff ff    	jne    402a20 <_D3std6format18__T10FormatSpecTaZ10FormatSpec6fillUpMFZv+0x164>
  402aa2:	48 8b 5d f0          	mov    rbx,QWORD PTR [rbp-0x10]
  402aa6:	48 8b 53 38          	mov    rdx,QWORD PTR [rbx+0x38]
  402aaa:	48 8b 43 30          	mov    rax,QWORD PTR [rbx+0x30]
  402aae:	48 89 85 e0 fc ff ff 	mov    QWORD PTR [rbp-0x320],rax
  402ab5:	48 89 95 e8 fc ff ff 	mov    QWORD PTR [rbp-0x318],rdx
  402abc:	48 3b 85 b0 fc ff ff 	cmp    rax,QWORD PTR [rbp-0x350]
  402ac3:	77 0a                	ja     402acf <_D3std6format18__T10FormatSpecTaZ10FormatSpec6fillUpMFZv+0x213>
  402ac5:	bf 21 03 00 00       	mov    edi,0x321
  402aca:	e8 3d c8 00 00       	call   40f30c <_D3std6format7__arrayZ>
  402acf:	48 8b 95 e8 fc ff ff 	mov    rdx,QWORD PTR [rbp-0x318]
  402ad6:	48 8b 85 e0 fc ff ff 	mov    rax,QWORD PTR [rbp-0x320]
  402add:	48 8b 8d b0 fc ff ff 	mov    rcx,QWORD PTR [rbp-0x350]
  402ae4:	8a 1c 0a             	mov    bl,BYTE PTR [rdx+rcx*1]
  402ae7:	80 fb 29             	cmp    bl,0x29
  402aea:	75 19                	jne    402b05 <_D3std6format18__T10FormatSpecTaZ10FormatSpec6fillUpMFZv+0x249>
  402aec:	8b b5 b8 fc ff ff    	mov    esi,DWORD PTR [rbp-0x348]
  402af2:	ff 8d b8 fc ff ff    	dec    DWORD PTR [rbp-0x348]
  402af8:	85 f6                	test   esi,esi
  402afa:	0f 85 20 ff ff ff    	jne    402a20 <_D3std6format18__T10FormatSpecTaZ10FormatSpec6fillUpMFZv+0x164>
  402b00:	e9 b4 00 00 00       	jmp    402bb9 <_D3std6format18__T10FormatSpecTaZ10FormatSpec6fillUpMFZv+0x2fd>
  402b05:	48 8b 7d f0          	mov    rdi,QWORD PTR [rbp-0x10]
  402b09:	48 8b 57 38          	mov    rdx,QWORD PTR [rdi+0x38]
  402b0d:	48 8b 47 30          	mov    rax,QWORD PTR [rdi+0x30]
  402b11:	48 89 85 f0 fc ff ff 	mov    QWORD PTR [rbp-0x310],rax
  402b18:	48 89 95 f8 fc ff ff 	mov    QWORD PTR [rbp-0x308],rdx
  402b1f:	48 3b 85 b0 fc ff ff 	cmp    rax,QWORD PTR [rbp-0x350]
  402b26:	77 0a                	ja     402b32 <_D3std6format18__T10FormatSpecTaZ10FormatSpec6fillUpMFZv+0x276>
  402b28:	bf 25 03 00 00       	mov    edi,0x325
  402b2d:	e8 da c7 00 00       	call   40f30c <_D3std6format7__arrayZ>
  402b32:	48 8b 95 f8 fc ff ff 	mov    rdx,QWORD PTR [rbp-0x308]
  402b39:	48 8b 85 f0 fc ff ff 	mov    rax,QWORD PTR [rbp-0x310]
  402b40:	48 8b 8d b0 fc ff ff 	mov    rcx,QWORD PTR [rbp-0x350]
  402b47:	40 8a 34 0a          	mov    sil,BYTE PTR [rdx+rcx*1]
  402b4b:	40 80 fe 7c          	cmp    sil,0x7c
  402b4f:	75 0f                	jne    402b60 <_D3std6format18__T10FormatSpecTaZ10FormatSpec6fillUpMFZv+0x2a4>
  402b51:	83 bd b8 fc ff ff 00 	cmp    DWORD PTR [rbp-0x348],0x0
  402b58:	0f 85 c2 fe ff ff    	jne    402a20 <_D3std6format18__T10FormatSpecTaZ10FormatSpec6fillUpMFZv+0x164>
  402b5e:	eb 59                	jmp    402bb9 <_D3std6format18__T10FormatSpecTaZ10FormatSpec6fillUpMFZv+0x2fd>
  402b60:	48 8b 5d f0          	mov    rbx,QWORD PTR [rbp-0x10]
  402b64:	48 8b 53 38          	mov    rdx,QWORD PTR [rbx+0x38]
  402b68:	48 8b 43 30          	mov    rax,QWORD PTR [rbx+0x30]
  402b6c:	48 89 85 00 fd ff ff 	mov    QWORD PTR [rbp-0x300],rax
  402b73:	48 89 95 08 fd ff ff 	mov    QWORD PTR [rbp-0x2f8],rdx
  402b7a:	48 3b 85 b0 fc ff ff 	cmp    rax,QWORD PTR [rbp-0x350]
  402b81:	77 0a                	ja     402b8d <_D3std6format18__T10FormatSpecTaZ10FormatSpec6fillUpMFZv+0x2d1>
  402b83:	bf 29 03 00 00       	mov    edi,0x329
  402b88:	e8 7f c7 00 00       	call   40f30c <_D3std6format7__arrayZ>
  402b8d:	48 8b 95 08 fd ff ff 	mov    rdx,QWORD PTR [rbp-0x2f8]
  402b94:	48 8b 85 00 fd ff ff 	mov    rax,QWORD PTR [rbp-0x300]
  402b9b:	48 8b 8d b0 fc ff ff 	mov    rcx,QWORD PTR [rbp-0x350]
  402ba2:	8a 1c 0a             	mov    bl,BYTE PTR [rdx+rcx*1]
  402ba5:	80 fb 28             	cmp    bl,0x28
  402ba8:	0f 85 72 fe ff ff    	jne    402a20 <_D3std6format18__T10FormatSpecTaZ10FormatSpec6fillUpMFZv+0x164>
  402bae:	ff 85 b8 fc ff ff    	inc    DWORD PTR [rbp-0x348]
  402bb4:	e9 67 fe ff ff       	jmp    402a20 <_D3std6format18__T10FormatSpecTaZ10FormatSpec6fillUpMFZv+0x164>
  402bb9:	48 8b 75 f0          	mov    rsi,QWORD PTR [rbp-0x10]
  402bbd:	48 8b 56 38          	mov    rdx,QWORD PTR [rsi+0x38]
  402bc1:	48 8b 46 30          	mov    rax,QWORD PTR [rsi+0x30]
  402bc5:	48 89 85 10 fd ff ff 	mov    QWORD PTR [rbp-0x2f0],rax
  402bcc:	48 89 95 18 fd ff ff 	mov    QWORD PTR [rbp-0x2e8],rdx
  402bd3:	48 3b 85 b0 fc ff ff 	cmp    rax,QWORD PTR [rbp-0x350]
  402bda:	77 0a                	ja     402be6 <_D3std6format18__T10FormatSpecTaZ10FormatSpec6fillUpMFZv+0x32a>
  402bdc:	bf 2e 03 00 00       	mov    edi,0x32e
  402be1:	e8 26 c7 00 00       	call   40f30c <_D3std6format7__arrayZ>
  402be6:	48 8b 95 18 fd ff ff 	mov    rdx,QWORD PTR [rbp-0x2e8]
  402bed:	48 8b 85 10 fd ff ff 	mov    rax,QWORD PTR [rbp-0x2f0]
  402bf4:	48 8b 8d b0 fc ff ff 	mov    rcx,QWORD PTR [rbp-0x350]
  402bfb:	40 8a 34 0a          	mov    sil,BYTE PTR [rdx+rcx*1]
  402bff:	40 80 fe 7c          	cmp    sil,0x7c
  402c03:	0f 85 e1 02 00 00    	jne    402eea <_D3std6format18__T10FormatSpecTaZ10FormatSpec6fillUpMFZv+0x62e>
  402c09:	48 8b 9d b0 fc ff ff 	mov    rbx,QWORD PTR [rbp-0x350]
  402c10:	48 89 9d 20 fd ff ff 	mov    QWORD PTR [rbp-0x2e0],rbx
  402c17:	48 ff 85 b0 fc ff ff 	inc    QWORD PTR [rbp-0x350]
  402c1e:	48 8b bd b0 fc ff ff 	mov    rdi,QWORD PTR [rbp-0x350]
  402c25:	48 ff 85 b0 fc ff ff 	inc    QWORD PTR [rbp-0x350]
  402c2c:	48 89 bd 40 fd ff ff 	mov    QWORD PTR [rbp-0x2c0],rdi
  402c33:	48 8b 45 f0          	mov    rax,QWORD PTR [rbp-0x10]
  402c37:	48 8b 50 38          	mov    rdx,QWORD PTR [rax+0x38]
  402c3b:	48 8b 40 30          	mov    rax,QWORD PTR [rax+0x30]
  402c3f:	48 89 85 30 fd ff ff 	mov    QWORD PTR [rbp-0x2d0],rax
  402c46:	48 89 95 38 fd ff ff 	mov    QWORD PTR [rbp-0x2c8],rdx
  402c4d:	48 3b f8             	cmp    rdi,rax
  402c50:	72 0a                	jb     402c5c <_D3std6format18__T10FormatSpecTaZ10FormatSpec6fillUpMFZv+0x3a0>
  402c52:	bf 33 03 00 00       	mov    edi,0x333
  402c57:	e8 b0 c6 00 00       	call   40f30c <_D3std6format7__arrayZ>
  402c5c:	48 8b 95 38 fd ff ff 	mov    rdx,QWORD PTR [rbp-0x2c8]
  402c63:	48 8b 85 30 fd ff ff 	mov    rax,QWORD PTR [rbp-0x2d0]
  402c6a:	48 8b 8d 40 fd ff ff 	mov    rcx,QWORD PTR [rbp-0x2c0]
  402c71:	40 8a 34 0a          	mov    sil,BYTE PTR [rdx+rcx*1]
  402c75:	b3 25                	mov    bl,0x25
  402c77:	40 3a f3             	cmp    sil,bl
  402c7a:	75 a2                	jne    402c1e <_D3std6format18__T10FormatSpecTaZ10FormatSpec6fillUpMFZv+0x362>
  402c7c:	48 8b 7d f0          	mov    rdi,QWORD PTR [rbp-0x10]
  402c80:	48 8b 57 38          	mov    rdx,QWORD PTR [rdi+0x38]
  402c84:	48 8b 47 30          	mov    rax,QWORD PTR [rdi+0x30]
  402c88:	48 89 85 50 fd ff ff 	mov    QWORD PTR [rbp-0x2b0],rax
  402c8f:	48 89 95 58 fd ff ff 	mov    QWORD PTR [rbp-0x2a8],rdx
  402c96:	48 3b 85 b0 fc ff ff 	cmp    rax,QWORD PTR [rbp-0x350]
  402c9d:	77 0a                	ja     402ca9 <_D3std6format18__T10FormatSpecTaZ10FormatSpec6fillUpMFZv+0x3ed>
  402c9f:	bf 35 03 00 00       	mov    edi,0x335
  402ca4:	e8 63 c6 00 00       	call   40f30c <_D3std6format7__arrayZ>
  402ca9:	48 8b 95 58 fd ff ff 	mov    rdx,QWORD PTR [rbp-0x2a8]
  402cb0:	48 8b 85 50 fd ff ff 	mov    rax,QWORD PTR [rbp-0x2b0]
  402cb7:	48 8b 8d b0 fc ff ff 	mov    rcx,QWORD PTR [rbp-0x350]
  402cbe:	40 8a 34 0a          	mov    sil,BYTE PTR [rdx+rcx*1]
  402cc2:	40 3a f3             	cmp    sil,bl
  402cc5:	75 0c                	jne    402cd3 <_D3std6format18__T10FormatSpecTaZ10FormatSpec6fillUpMFZv+0x417>
  402cc7:	48 ff 85 b0 fc ff ff 	inc    QWORD PTR [rbp-0x350]
  402cce:	e9 4b ff ff ff       	jmp    402c1e <_D3std6format18__T10FormatSpecTaZ10FormatSpec6fillUpMFZv+0x362>
  402cd3:	48 8b 5d f0          	mov    rbx,QWORD PTR [rbp-0x10]
  402cd7:	48 8b 53 38          	mov    rdx,QWORD PTR [rbx+0x38]
  402cdb:	48 8b 43 30          	mov    rax,QWORD PTR [rbx+0x30]
  402cdf:	48 89 85 60 fd ff ff 	mov    QWORD PTR [rbp-0x2a0],rax
  402ce6:	48 89 95 68 fd ff ff 	mov    QWORD PTR [rbp-0x298],rdx
  402ced:	48 3b 85 b0 fc ff ff 	cmp    rax,QWORD PTR [rbp-0x350]
  402cf4:	77 0a                	ja     402d00 <_D3std6format18__T10FormatSpecTaZ10FormatSpec6fillUpMFZv+0x444>
  402cf6:	bf 37 03 00 00       	mov    edi,0x337
  402cfb:	e8 0c c6 00 00       	call   40f30c <_D3std6format7__arrayZ>
  402d00:	48 8b 95 68 fd ff ff 	mov    rdx,QWORD PTR [rbp-0x298]
  402d07:	48 8b 85 60 fd ff ff 	mov    rax,QWORD PTR [rbp-0x2a0]
  402d0e:	48 8b 8d b0 fc ff ff 	mov    rcx,QWORD PTR [rbp-0x350]
  402d15:	8a 1c 0a             	mov    bl,BYTE PTR [rdx+rcx*1]
  402d18:	80 fb 29             	cmp    bl,0x29
  402d1b:	0f 84 ba 00 00 00    	je     402ddb <_D3std6format18__T10FormatSpecTaZ10FormatSpec6fillUpMFZv+0x51f>
  402d21:	48 bf 40 0d 63 00 00 	movabs rdi,0x630d40
  402d28:	00 00 00 
  402d2b:	e8 5c 88 00 00       	call   40b58c <_d_newclass>
  402d30:	48 89 85 70 fd ff ff 	mov    QWORD PTR [rbp-0x290],rax
  402d37:	ff 35 1b 33 02 00    	push   QWORD PTR [rip+0x2331b]        # 426058 <_TMP25+0x8>
  402d3d:	ff 35 0d 33 02 00    	push   QWORD PTR [rip+0x2330d]        # 426050 <_TMP25>
  402d43:	48 8b 75 f0          	mov    rsi,QWORD PTR [rbp-0x10]
  402d47:	48 8b 56 38          	mov    rdx,QWORD PTR [rsi+0x38]
  402d4b:	48 8b 5e 30          	mov    rbx,QWORD PTR [rsi+0x30]
  402d4f:	48 89 9d 80 fd ff ff 	mov    QWORD PTR [rbp-0x280],rbx
  402d56:	48 89 95 88 fd ff ff 	mov    QWORD PTR [rbp-0x278],rdx
  402d5d:	48 89 9d 90 fd ff ff 	mov    QWORD PTR [rbp-0x270],rbx
  402d64:	48 39 db             	cmp    rbx,rbx
  402d67:	77 09                	ja     402d72 <_D3std6format18__T10FormatSpecTaZ10FormatSpec6fillUpMFZv+0x4b6>
  402d69:	48 39 9d b0 fc ff ff 	cmp    QWORD PTR [rbp-0x350],rbx
  402d70:	76 0a                	jbe    402d7c <_D3std6format18__T10FormatSpecTaZ10FormatSpec6fillUpMFZv+0x4c0>
  402d72:	bf 3c 03 00 00       	mov    edi,0x33c
  402d77:	e8 90 c5 00 00       	call   40f30c <_D3std6format7__arrayZ>
  402d7c:	48 2b 9d b0 fc ff ff 	sub    rbx,QWORD PTR [rbp-0x350]
  402d83:	48 8b 95 88 fd ff ff 	mov    rdx,QWORD PTR [rbp-0x278]
  402d8a:	48 8b 85 80 fd ff ff 	mov    rax,QWORD PTR [rbp-0x280]
  402d91:	48 03 95 b0 fc ff ff 	add    rdx,QWORD PTR [rbp-0x350]
  402d98:	52                   	push   rdx
  402d99:	53                   	push   rbx
  402d9a:	e8 f9 3b 00 00       	call   406998 <_D3std4conv17__T4textTAyaTAxaZ4textFAyaAxaZAya>
  402d9f:	48 83 c4 20          	add    rsp,0x20
  402da3:	52                   	push   rdx
  402da4:	50                   	push   rax
  402da5:	ff 35 dd 31 02 00    	push   QWORD PTR [rip+0x231dd]        # 425f88 <_TMP5+0x8>
  402dab:	ff 35 cf 31 02 00    	push   QWORD PTR [rip+0x231cf]        # 425f80 <_TMP5>
  402db1:	48 ba 3a 03 00 00 00 	movabs rdx,0x33a
  402db8:	00 00 00 
  402dbb:	48 31 f6             	xor    rsi,rsi
  402dbe:	48 8b bd 70 fd ff ff 	mov    rdi,QWORD PTR [rbp-0x290]
  402dc5:	e8 e2 69 00 00       	call   4097ac <_D6object9Exception6__ctorMFAyaAyamC6object9ThrowableZC9Exception>
  402dca:	48 83 c4 20          	add    rsp,0x20
  402dce:	48 89 c7             	mov    rdi,rax
  402dd1:	e8 4a 7a 00 00       	call   40a820 <_d_throwc>
  402dd6:	e9 43 fe ff ff       	jmp    402c1e <_D3std6format18__T10FormatSpecTaZ10FormatSpec6fillUpMFZv+0x362>
  402ddb:	48 8b 85 20 fd ff ff 	mov    rax,QWORD PTR [rbp-0x2e0]
  402de2:	48 8d 88 ff ff ff ff 	lea    rcx,[rax-0x1]
  402de9:	48 8b 55 f0          	mov    rdx,QWORD PTR [rbp-0x10]
  402ded:	48 8b 5a 30          	mov    rbx,QWORD PTR [rdx+0x30]
  402df1:	48 8b 52 38          	mov    rdx,QWORD PTR [rdx+0x38]
  402df5:	48 89 9d a0 fd ff ff 	mov    QWORD PTR [rbp-0x260],rbx
  402dfc:	48 89 95 a8 fd ff ff 	mov    QWORD PTR [rbp-0x258],rdx
  402e03:	48 3b cb             	cmp    rcx,rbx
  402e06:	48 89 8d 78 fc ff ff 	mov    QWORD PTR [rbp-0x388],rcx
  402e0d:	77 0f                	ja     402e1e <_D3std6format18__T10FormatSpecTaZ10FormatSpec6fillUpMFZv+0x562>
  402e0f:	48 8b b5 90 fc ff ff 	mov    rsi,QWORD PTR [rbp-0x370]
  402e16:	48 ff c6             	inc    rsi
  402e19:	48 3b f1             	cmp    rsi,rcx
  402e1c:	76 0a                	jbe    402e28 <_D3std6format18__T10FormatSpecTaZ10FormatSpec6fillUpMFZv+0x56c>
  402e1e:	bf 3e 03 00 00       	mov    edi,0x33e
  402e23:	e8 e4 c4 00 00       	call   40f30c <_D3std6format7__arrayZ>
  402e28:	48 8b 85 78 fc ff ff 	mov    rax,QWORD PTR [rbp-0x388]
  402e2f:	48 8b 8d 90 fc ff ff 	mov    rcx,QWORD PTR [rbp-0x370]
  402e36:	48 ff c1             	inc    rcx
  402e39:	48 2b c1             	sub    rax,rcx
  402e3c:	48 8b 95 a8 fd ff ff 	mov    rdx,QWORD PTR [rbp-0x258]
  402e43:	48 8b f3             	mov    rsi,rbx
  402e46:	48 8d 0c 11          	lea    rcx,[rcx+rdx*1]
  402e4a:	51                   	push   rcx
  402e4b:	50                   	push   rax
  402e4c:	e8 5b 3c 00 00       	call   406aac <_D3std4conv11__T2toTAxaZ11__T2toTAxaZ2toFAxaZAxa>
  402e51:	48 83 c4 10          	add    rsp,0x10
  402e55:	48 8b 5d f0          	mov    rbx,QWORD PTR [rbp-0x10]
  402e59:	48 89 43 10          	mov    QWORD PTR [rbx+0x10],rax
  402e5d:	48 89 53 18          	mov    QWORD PTR [rbx+0x18],rdx
  402e61:	48 8b 85 b0 fc ff ff 	mov    rax,QWORD PTR [rbp-0x350]
  402e68:	48 ff c8             	dec    rax
  402e6b:	48 8b 7d f0          	mov    rdi,QWORD PTR [rbp-0x10]
  402e6f:	48 8b 57 38          	mov    rdx,QWORD PTR [rdi+0x38]
  402e73:	48 8b 5f 30          	mov    rbx,QWORD PTR [rdi+0x30]
  402e77:	48 89 9d b0 fd ff ff 	mov    QWORD PTR [rbp-0x250],rbx
  402e7e:	48 89 95 b8 fd ff ff 	mov    QWORD PTR [rbp-0x248],rdx
  402e85:	48 3b c3             	cmp    rax,rbx
  402e88:	48 89 85 80 fc ff ff 	mov    QWORD PTR [rbp-0x380],rax
  402e8f:	77 10                	ja     402ea1 <_D3std6format18__T10FormatSpecTaZ10FormatSpec6fillUpMFZv+0x5e5>
  402e91:	48 8b 8d 20 fd ff ff 	mov    rcx,QWORD PTR [rbp-0x2e0]
  402e98:	48 8d 71 01          	lea    rsi,[rcx+0x1]
  402e9c:	48 3b f0             	cmp    rsi,rax
  402e9f:	76 0a                	jbe    402eab <_D3std6format18__T10FormatSpecTaZ10FormatSpec6fillUpMFZv+0x5ef>
  402ea1:	bf 3f 03 00 00       	mov    edi,0x33f
  402ea6:	e8 61 c4 00 00       	call   40f30c <_D3std6format7__arrayZ>
  402eab:	48 8b 85 80 fc ff ff 	mov    rax,QWORD PTR [rbp-0x380]
  402eb2:	48 8b 95 20 fd ff ff 	mov    rdx,QWORD PTR [rbp-0x2e0]
  402eb9:	48 8d 4a 01          	lea    rcx,[rdx+0x1]
  402ebd:	48 2b c1             	sub    rax,rcx
  402ec0:	48 8b 95 b8 fd ff ff 	mov    rdx,QWORD PTR [rbp-0x248]
  402ec7:	48 8b f3             	mov    rsi,rbx
  402eca:	48 8d 0c 11          	lea    rcx,[rcx+rdx*1]
  402ece:	51                   	push   rcx
  402ecf:	50                   	push   rax
  402ed0:	e8 d7 3b 00 00       	call   406aac <_D3std4conv11__T2toTAxaZ11__T2toTAxaZ2toFAxaZAxa>
  402ed5:	48 83 c4 10          	add    rsp,0x10
  402ed9:	48 8b 5d f0          	mov    rbx,QWORD PTR [rbp-0x10]
  402edd:	48 89 43 20          	mov    QWORD PTR [rbx+0x20],rax
  402ee1:	48 89 53 28          	mov    QWORD PTR [rbx+0x28],rdx
  402ee5:	e9 96 00 00 00       	jmp    402f80 <_D3std6format18__T10FormatSpecTaZ10FormatSpec6fillUpMFZv+0x6c4>
  402eea:	48 8b 85 b0 fc ff ff 	mov    rax,QWORD PTR [rbp-0x350]
  402ef1:	48 ff c8             	dec    rax
  402ef4:	48 8b 7d f0          	mov    rdi,QWORD PTR [rbp-0x10]
  402ef8:	48 8b 57 38          	mov    rdx,QWORD PTR [rdi+0x38]
  402efc:	48 8b 5f 30          	mov    rbx,QWORD PTR [rdi+0x30]
  402f00:	48 89 9d c0 fd ff ff 	mov    QWORD PTR [rbp-0x240],rbx
  402f07:	48 89 95 c8 fd ff ff 	mov    QWORD PTR [rbp-0x238],rdx
  402f0e:	48 3b c3             	cmp    rax,rbx
  402f11:	48 89 85 88 fc ff ff 	mov    QWORD PTR [rbp-0x378],rax
  402f18:	77 0f                	ja     402f29 <_D3std6format18__T10FormatSpecTaZ10FormatSpec6fillUpMFZv+0x66d>
  402f1a:	48 8b 8d 90 fc ff ff 	mov    rcx,QWORD PTR [rbp-0x370]
  402f21:	48 ff c1             	inc    rcx
  402f24:	48 3b c8             	cmp    rcx,rax
  402f27:	76 0a                	jbe    402f33 <_D3std6format18__T10FormatSpecTaZ10FormatSpec6fillUpMFZv+0x677>
  402f29:	bf 43 03 00 00       	mov    edi,0x343
  402f2e:	e8 d9 c3 00 00       	call   40f30c <_D3std6format7__arrayZ>
  402f33:	48 8b 85 88 fc ff ff 	mov    rax,QWORD PTR [rbp-0x378]
  402f3a:	48 8b b5 90 fc ff ff 	mov    rsi,QWORD PTR [rbp-0x370]
  402f41:	48 ff c6             	inc    rsi
  402f44:	48 2b c6             	sub    rax,rsi
  402f47:	48 8b 95 c8 fd ff ff 	mov    rdx,QWORD PTR [rbp-0x238]
  402f4e:	48 8b fb             	mov    rdi,rbx
  402f51:	48 8d 0c 16          	lea    rcx,[rsi+rdx*1]
  402f55:	51                   	push   rcx
  402f56:	50                   	push   rax
  402f57:	e8 50 3b 00 00       	call   406aac <_D3std4conv11__T2toTAxaZ11__T2toTAxaZ2toFAxaZAxa>
  402f5c:	48 83 c4 10          	add    rsp,0x10
  402f60:	48 8b 5d f0          	mov    rbx,QWORD PTR [rbp-0x10]
  402f64:	48 89 43 10          	mov    QWORD PTR [rbx+0x10],rax
  402f68:	48 89 53 18          	mov    QWORD PTR [rbx+0x18],rdx
  402f6c:	48 8b 45 f0          	mov    rax,QWORD PTR [rbp-0x10]
  402f70:	48 c7 40 20 00 00 00 	mov    QWORD PTR [rax+0x20],0x0
  402f77:	00 
  402f78:	48 c7 40 28 00 00 00 	mov    QWORD PTR [rax+0x28],0x0
  402f7f:	00 
  402f80:	48 8b 75 f0          	mov    rsi,QWORD PTR [rbp-0x10]
  402f84:	c6 46 08 28          	mov    BYTE PTR [rsi+0x8],0x28
  402f88:	48 8b 55 f0          	mov    rdx,QWORD PTR [rbp-0x10]
  402f8c:	48 8b 42 30          	mov    rax,QWORD PTR [rdx+0x30]
  402f90:	48 8b 52 38          	mov    rdx,QWORD PTR [rdx+0x38]
  402f94:	48 89 85 d0 fd ff ff 	mov    QWORD PTR [rbp-0x230],rax
  402f9b:	48 89 95 d8 fd ff ff 	mov    QWORD PTR [rbp-0x228],rdx
  402fa2:	48 89 85 e0 fd ff ff 	mov    QWORD PTR [rbp-0x220],rax
  402fa9:	48 39 c0             	cmp    rax,rax
  402fac:	77 0f                	ja     402fbd <_D3std6format18__T10FormatSpecTaZ10FormatSpec6fillUpMFZv+0x701>
  402fae:	48 8b 8d b0 fc ff ff 	mov    rcx,QWORD PTR [rbp-0x350]
  402fb5:	48 ff c1             	inc    rcx
  402fb8:	48 3b c8             	cmp    rcx,rax
  402fbb:	76 0a                	jbe    402fc7 <_D3std6format18__T10FormatSpecTaZ10FormatSpec6fillUpMFZv+0x70b>
  402fbd:	bf 49 03 00 00       	mov    edi,0x349
  402fc2:	e8 45 c3 00 00       	call   40f30c <_D3std6format7__arrayZ>
  402fc7:	48 8b b5 e0 fd ff ff 	mov    rsi,QWORD PTR [rbp-0x220]
  402fce:	48 8b 9d b0 fc ff ff 	mov    rbx,QWORD PTR [rbp-0x350]
  402fd5:	48 ff c3             	inc    rbx
  402fd8:	48 2b f3             	sub    rsi,rbx
  402fdb:	48 8b 95 d8 fd ff ff 	mov    rdx,QWORD PTR [rbp-0x228]
  402fe2:	48 8b 85 d0 fd ff ff 	mov    rax,QWORD PTR [rbp-0x230]
  402fe9:	48 8d 0c 13          	lea    rcx,[rbx+rdx*1]
  402fed:	48 8b 7d f0          	mov    rdi,QWORD PTR [rbp-0x10]
  402ff1:	48 89 77 30          	mov    QWORD PTR [rdi+0x30],rsi
  402ff5:	48 89 4f 38          	mov    QWORD PTR [rdi+0x38],rcx
  402ff9:	5b                   	pop    rbx
  402ffa:	c9                   	leave  
  402ffb:	c3                   	ret    
  402ffc:	40 b6 01             	mov    sil,0x1
  402fff:	48 8b 7d f0          	mov    rdi,QWORD PTR [rbp-0x10]
  403003:	e8 b8 f5 ff ff       	call   4025c0 <_D3std6format18__T10FormatSpecTaZ10FormatSpec6flDashMFNdbZv>
  403008:	48 ff 85 90 fc ff ff 	inc    QWORD PTR [rbp-0x370]
  40300f:	e9 f4 f8 ff ff       	jmp    402908 <_D3std6format18__T10FormatSpecTaZ10FormatSpec6fillUpMFZv+0x4c>
  403014:	40 b6 01             	mov    sil,0x1
  403017:	48 8b 7d f0          	mov    rdi,QWORD PTR [rbp-0x10]
  40301b:	e8 80 f7 ff ff       	call   4027a0 <_D3std6format18__T10FormatSpecTaZ10FormatSpec6flPlusMFNdbZv>
  403020:	48 ff 85 90 fc ff ff 	inc    QWORD PTR [rbp-0x370]
  403027:	e9 dc f8 ff ff       	jmp    402908 <_D3std6format18__T10FormatSpecTaZ10FormatSpec6fillUpMFZv+0x4c>
  40302c:	40 b6 01             	mov    sil,0x1
  40302f:	48 8b 7d f0          	mov    rdi,QWORD PTR [rbp-0x10]
  403033:	e8 08 f8 ff ff       	call   402840 <_D3std6format18__T10FormatSpecTaZ10FormatSpec6flHashMFNdbZv>
  403038:	48 ff 85 90 fc ff ff 	inc    QWORD PTR [rbp-0x370]
  40303f:	e9 c4 f8 ff ff       	jmp    402908 <_D3std6format18__T10FormatSpecTaZ10FormatSpec6fillUpMFZv+0x4c>
  403044:	40 b6 01             	mov    sil,0x1
  403047:	48 8b 7d f0          	mov    rdi,QWORD PTR [rbp-0x10]
  40304b:	e8 10 f6 ff ff       	call   402660 <_D3std6format18__T10FormatSpecTaZ10FormatSpec6flZeroMFNdbZv>
  403050:	48 ff 85 90 fc ff ff 	inc    QWORD PTR [rbp-0x370]
  403057:	e9 ac f8 ff ff       	jmp    402908 <_D3std6format18__T10FormatSpecTaZ10FormatSpec6fillUpMFZv+0x4c>
  40305c:	40 b6 01             	mov    sil,0x1
  40305f:	48 8b 7d f0          	mov    rdi,QWORD PTR [rbp-0x10]
  403063:	e8 98 f6 ff ff       	call   402700 <_D3std6format18__T10FormatSpecTaZ10FormatSpec7flSpaceMFNdbZv>
  403068:	48 ff 85 90 fc ff ff 	inc    QWORD PTR [rbp-0x370]
  40306f:	e9 94 f8 ff ff       	jmp    402908 <_D3std6format18__T10FormatSpecTaZ10FormatSpec6fillUpMFZv+0x4c>
  403074:	48 ff 85 90 fc ff ff 	inc    QWORD PTR [rbp-0x370]
  40307b:	48 8b 85 90 fc ff ff 	mov    rax,QWORD PTR [rbp-0x370]
  403082:	48 89 85 00 fe ff ff 	mov    QWORD PTR [rbp-0x200],rax
  403089:	48 8b 4d f0          	mov    rcx,QWORD PTR [rbp-0x10]
  40308d:	48 8b 51 38          	mov    rdx,QWORD PTR [rcx+0x38]
  403091:	48 8b 59 30          	mov    rbx,QWORD PTR [rcx+0x30]
  403095:	48 89 9d f0 fd ff ff 	mov    QWORD PTR [rbp-0x210],rbx
  40309c:	48 89 95 f8 fd ff ff 	mov    QWORD PTR [rbp-0x208],rdx
  4030a3:	48 3b c3             	cmp    rax,rbx
  4030a6:	72 0a                	jb     4030b2 <_D3std6format18__T10FormatSpecTaZ10FormatSpec6fillUpMFZv+0x7f6>
  4030a8:	bf 51 03 00 00       	mov    edi,0x351
  4030ad:	e8 5a c2 00 00       	call   40f30c <_D3std6format7__arrayZ>
  4030b2:	48 8b 95 f8 fd ff ff 	mov    rdx,QWORD PTR [rbp-0x208]
  4030b9:	48 8b c3             	mov    rax,rbx
  4030bc:	48 8b 8d 00 fe ff ff 	mov    rcx,QWORD PTR [rbp-0x200]
  4030c3:	40 0f b6 3c 0a       	rex movzx edi,BYTE PTR [rdx+rcx*1]
  4030c8:	e8 9b bf 00 00       	call   40f068 <_D3std5ascii7isDigitFNaNbNfwZb>
  4030cd:	84 c0                	test   al,al
  4030cf:	0f 84 0d 01 00 00    	je     4031e2 <_D3std6format18__T10FormatSpecTaZ10FormatSpec6fillUpMFZv+0x926>
  4030d5:	48 8b 5d f0          	mov    rbx,QWORD PTR [rbp-0x10]
  4030d9:	48 8b 53 38          	mov    rdx,QWORD PTR [rbx+0x38]
  4030dd:	48 8b 43 30          	mov    rax,QWORD PTR [rbx+0x30]
  4030e1:	48 89 85 10 fe ff ff 	mov    QWORD PTR [rbp-0x1f0],rax
  4030e8:	48 89 95 18 fe ff ff 	mov    QWORD PTR [rbp-0x1e8],rdx
  4030ef:	48 89 85 20 fe ff ff 	mov    QWORD PTR [rbp-0x1e0],rax
  4030f6:	48 39 c0             	cmp    rax,rax
  4030f9:	77 06                	ja     403101 <_D3std6format18__T10FormatSpecTaZ10FormatSpec6fillUpMFZv+0x845>
  4030fb:	48 83 f8 01          	cmp    rax,0x1
  4030ff:	73 0a                	jae    40310b <_D3std6format18__T10FormatSpecTaZ10FormatSpec6fillUpMFZv+0x84f>
  403101:	bf 55 03 00 00       	mov    edi,0x355
  403106:	e8 01 c2 00 00       	call   40f30c <_D3std6format7__arrayZ>
  40310b:	48 8b b5 20 fe ff ff 	mov    rsi,QWORD PTR [rbp-0x1e0]
  403112:	48 8d 5e ff          	lea    rbx,[rsi-0x1]
  403116:	48 8b 95 18 fe ff ff 	mov    rdx,QWORD PTR [rbp-0x1e8]
  40311d:	48 8b 85 10 fe ff ff 	mov    rax,QWORD PTR [rbp-0x1f0]
  403124:	48 ff c2             	inc    rdx
  403127:	48 8b 4d f0          	mov    rcx,QWORD PTR [rbp-0x10]
  40312b:	48 89 59 30          	mov    QWORD PTR [rcx+0x30],rbx
  40312f:	48 89 51 38          	mov    QWORD PTR [rcx+0x38],rdx
  403133:	48 8b 7d f0          	mov    rdi,QWORD PTR [rbp-0x10]
  403137:	48 83 c7 30          	add    rdi,0x30
  40313b:	e8 94 39 00 00       	call   406ad4 <_D3std4conv16__T5parseTiTAxaZ5parseFKAxaZi>
  403140:	f7 d8                	neg    eax
  403142:	48 8b 75 f0          	mov    rsi,QWORD PTR [rbp-0x10]
  403146:	89 06                	mov    DWORD PTR [rsi],eax
  403148:	48 c7 85 90 fc ff ff 	mov    QWORD PTR [rbp-0x370],0x0
  40314f:	00 00 00 00 
  403153:	48 8b 9d 90 fc ff ff 	mov    rbx,QWORD PTR [rbp-0x370]
  40315a:	48 ff 85 90 fc ff ff 	inc    QWORD PTR [rbp-0x370]
  403161:	48 89 9d 40 fe ff ff 	mov    QWORD PTR [rbp-0x1c0],rbx
  403168:	48 8b 45 f0          	mov    rax,QWORD PTR [rbp-0x10]
  40316c:	48 8b 50 38          	mov    rdx,QWORD PTR [rax+0x38]
  403170:	48 8b 40 30          	mov    rax,QWORD PTR [rax+0x30]
  403174:	48 89 85 30 fe ff ff 	mov    QWORD PTR [rbp-0x1d0],rax
  40317b:	48 89 95 38 fe ff ff 	mov    QWORD PTR [rbp-0x1c8],rdx
  403182:	48 3b d8             	cmp    rbx,rax
  403185:	72 0a                	jb     403191 <_D3std6format18__T10FormatSpecTaZ10FormatSpec6fillUpMFZv+0x8d5>
  403187:	bf 59 03 00 00       	mov    edi,0x359
  40318c:	e8 7b c1 00 00       	call   40f30c <_D3std6format7__arrayZ>
  403191:	48 8b 95 38 fe ff ff 	mov    rdx,QWORD PTR [rbp-0x1c8]
  403198:	48 8b 85 30 fe ff ff 	mov    rax,QWORD PTR [rbp-0x1d0]
  40319f:	8a 0c 1a             	mov    cl,BYTE PTR [rdx+rbx*1]
  4031a2:	80 f9 24             	cmp    cl,0x24
  4031a5:	be 01 00 00 00       	mov    esi,0x1
  4031aa:	74 02                	je     4031ae <_D3std6format18__T10FormatSpecTaZ10FormatSpec6fillUpMFZv+0x8f2>
  4031ac:	31 f6                	xor    esi,esi
  4031ae:	48 8d 5d f0          	lea    rbx,[rbp-0x10]
  4031b2:	48 ba 08 3a 40 00 00 	movabs rdx,0x403a08
  4031b9:	00 00 00 
  4031bc:	52                   	push   rdx
  4031bd:	53                   	push   rbx
  4031be:	ff 35 c4 2d 02 00    	push   QWORD PTR [rip+0x22dc4]        # 425f88 <_TMP5+0x8>
  4031c4:	ff 35 b6 2d 02 00    	push   QWORD PTR [rip+0x22db6]        # 425f80 <_TMP5>
  4031ca:	48 bf 59 03 00 00 00 	movabs rdi,0x359
  4031d1:	00 00 00 
  4031d4:	e8 23 15 00 00       	call   4046fc <_D3std9exception44__T9enforceExTC3std6format15FormatExceptionZ16__T9enforceExTbZ9enforceExFNaNfbLAyaAyamZb>
  4031d9:	48 83 c4 20          	add    rsp,0x20
  4031dd:	e9 26 f7 ff ff       	jmp    402908 <_D3std6format18__T10FormatSpecTaZ10FormatSpec6fillUpMFZv+0x4c>
  4031e2:	48 8b 45 f0          	mov    rax,QWORD PTR [rbp-0x10]
  4031e6:	c7 00 ff ff ff 7f    	mov    DWORD PTR [rax],0x7fffffff
  4031ec:	e9 17 f7 ff ff       	jmp    402908 <_D3std6format18__T10FormatSpecTaZ10FormatSpec6fillUpMFZv+0x4c>
  4031f1:	48 8b 4d f0          	mov    rcx,QWORD PTR [rbp-0x10]
  4031f5:	48 8b 51 38          	mov    rdx,QWORD PTR [rcx+0x38]
  4031f9:	48 8b 41 30          	mov    rax,QWORD PTR [rcx+0x30]
  4031fd:	48 89 85 60 fe ff ff 	mov    QWORD PTR [rbp-0x1a0],rax
  403204:	48 89 95 68 fe ff ff 	mov    QWORD PTR [rbp-0x198],rdx
  40320b:	48 89 85 70 fe ff ff 	mov    QWORD PTR [rbp-0x190],rax
  403212:	48 39 c0             	cmp    rax,rax
  403215:	77 09                	ja     403220 <_D3std6format18__T10FormatSpecTaZ10FormatSpec6fillUpMFZv+0x964>
  403217:	48 39 85 90 fc ff ff 	cmp    QWORD PTR [rbp-0x370],rax
  40321e:	76 0a                	jbe    40322a <_D3std6format18__T10FormatSpecTaZ10FormatSpec6fillUpMFZv+0x96e>
  403220:	bf 63 03 00 00       	mov    edi,0x363
  403225:	e8 e2 c0 00 00       	call   40f30c <_D3std6format7__arrayZ>
  40322a:	48 8b b5 70 fe ff ff 	mov    rsi,QWORD PTR [rbp-0x190]
  403231:	48 2b b5 90 fc ff ff 	sub    rsi,QWORD PTR [rbp-0x370]
  403238:	48 8b 95 68 fe ff ff 	mov    rdx,QWORD PTR [rbp-0x198]
  40323f:	48 8b 85 60 fe ff ff 	mov    rax,QWORD PTR [rbp-0x1a0]
  403246:	48 03 95 90 fc ff ff 	add    rdx,QWORD PTR [rbp-0x370]
  40324d:	48 89 b5 50 fe ff ff 	mov    QWORD PTR [rbp-0x1b0],rsi
  403254:	48 89 95 58 fe ff ff 	mov    QWORD PTR [rbp-0x1a8],rdx
  40325b:	48 8d bd 50 fe ff ff 	lea    rdi,[rbp-0x1b0]
  403262:	e8 69 3e 00 00       	call   4070d0 <_D3std4conv16__T5parseTkTAxaZ5parseFKAxaZk>
  403267:	89 85 78 fe ff ff    	mov    DWORD PTR [rbp-0x188],eax
  40326d:	48 8b b5 50 fe ff ff 	mov    rsi,QWORD PTR [rbp-0x1b0]
  403274:	48 8d 5d f0          	lea    rbx,[rbp-0x10]
  403278:	48 b9 24 3a 40 00 00 	movabs rcx,0x403a24
  40327f:	00 00 00 
  403282:	51                   	push   rcx
  403283:	53                   	push   rbx
  403284:	ff 35 fe 2c 02 00    	push   QWORD PTR [rip+0x22cfe]        # 425f88 <_TMP5+0x8>
  40328a:	ff 35 f0 2c 02 00    	push   QWORD PTR [rip+0x22cf0]        # 425f80 <_TMP5>
  403290:	48 bf 66 03 00 00 00 	movabs rdi,0x366
  403297:	00 00 00 
  40329a:	e8 d5 3f 00 00       	call   407274 <_D3std9exception44__T9enforceExTC3std6format15FormatExceptionZ16__T9enforceExTmZ9enforceExFNaNfmLAyaAyamZm>
  40329f:	48 83 c4 20          	add    rsp,0x20
  4032a3:	48 8b 85 58 fe ff ff 	mov    rax,QWORD PTR [rbp-0x1a8]
  4032aa:	48 8b 55 f0          	mov    rdx,QWORD PTR [rbp-0x10]
  4032ae:	48 8b 5a 30          	mov    rbx,QWORD PTR [rdx+0x30]
  4032b2:	48 8b 52 38          	mov    rdx,QWORD PTR [rdx+0x38]
  4032b6:	48 2b c2             	sub    rax,rdx
  4032b9:	48 89 85 90 fc ff ff 	mov    QWORD PTR [rbp-0x370],rax
  4032c0:	ff b5 58 fe ff ff    	push   QWORD PTR [rbp-0x1a8]
  4032c6:	ff b5 50 fe ff ff    	push   QWORD PTR [rbp-0x1b0]
  4032cc:	40 b7 24             	mov    dil,0x24
  4032cf:	e8 28 40 00 00       	call   4072fc <_D3std9algorithm41__T10startsWithVAyaa6_61203d3d2062TAxaTaZ10startsWithFAxaaZb>
  4032d4:	48 83 c4 10          	add    rsp,0x10
  4032d8:	84 c0                	test   al,al
  4032da:	74 25                	je     403301 <_D3std6format18__T10FormatSpecTaZ10FormatSpec6fillUpMFZv+0xa45>
  4032dc:	8b bd 78 fe ff ff    	mov    edi,DWORD PTR [rbp-0x188]
  4032e2:	e8 55 40 00 00       	call   40733c <_D3std4conv9__T2toThZ10__T2toTxkZ2toFxkZh>
  4032e7:	48 8b 4d f0          	mov    rcx,QWORD PTR [rbp-0x10]
  4032eb:	88 41 09             	mov    BYTE PTR [rcx+0x9],al
  4032ee:	48 8b 75 f0          	mov    rsi,QWORD PTR [rbp-0x10]
  4032f2:	88 46 0a             	mov    BYTE PTR [rsi+0xa],al
  4032f5:	48 ff 85 90 fc ff ff 	inc    QWORD PTR [rbp-0x370]
  4032fc:	e9 07 f6 ff ff       	jmp    402908 <_D3std6format18__T10FormatSpecTaZ10FormatSpec6fillUpMFZv+0x4c>
  403301:	48 83 bd 50 fe ff ff 	cmp    QWORD PTR [rbp-0x1b0],0x0
  403308:	00 
  403309:	0f 84 6b 01 00 00    	je     40347a <_D3std6format18__T10FormatSpecTaZ10FormatSpec6fillUpMFZv+0xbbe>
  40330f:	48 83 bd 50 fe ff ff 	cmp    QWORD PTR [rbp-0x1b0],0x0
  403316:	00 
  403317:	75 0a                	jne    403323 <_D3std6format18__T10FormatSpecTaZ10FormatSpec6fillUpMFZv+0xa67>
  403319:	bf 6f 03 00 00       	mov    edi,0x36f
  40331e:	e8 e9 bf 00 00       	call   40f30c <_D3std6format7__arrayZ>
  403323:	48 8b 95 58 fe ff ff 	mov    rdx,QWORD PTR [rbp-0x1a8]
  40332a:	48 8b 85 50 fe ff ff 	mov    rax,QWORD PTR [rbp-0x1b0]
  403331:	44 8a 02             	mov    r8b,BYTE PTR [rdx]
  403334:	41 80 f8 3a          	cmp    r8b,0x3a
  403338:	0f 85 3c 01 00 00    	jne    40347a <_D3std6format18__T10FormatSpecTaZ10FormatSpec6fillUpMFZv+0xbbe>
  40333e:	8b bd 78 fe ff ff    	mov    edi,DWORD PTR [rbp-0x188]
  403344:	e8 f3 3f 00 00       	call   40733c <_D3std4conv9__T2toThZ10__T2toTxkZ2toFxkZh>
  403349:	48 8b 4d f0          	mov    rcx,QWORD PTR [rbp-0x10]
  40334d:	88 41 09             	mov    BYTE PTR [rcx+0x9],al
  403350:	48 8b 9d 50 fe ff ff 	mov    rbx,QWORD PTR [rbp-0x1b0]
  403357:	48 89 9d 80 fe ff ff 	mov    QWORD PTR [rbp-0x180],rbx
  40335e:	48 39 db             	cmp    rbx,rbx
  403361:	77 06                	ja     403369 <_D3std6format18__T10FormatSpecTaZ10FormatSpec6fillUpMFZv+0xaad>
  403363:	48 83 fb 01          	cmp    rbx,0x1
  403367:	73 0a                	jae    403373 <_D3std6format18__T10FormatSpecTaZ10FormatSpec6fillUpMFZv+0xab7>
  403369:	bf 73 03 00 00       	mov    edi,0x373
  40336e:	e8 99 bf 00 00       	call   40f30c <_D3std6format7__arrayZ>
  403373:	48 8d 43 ff          	lea    rax,[rbx-0x1]
  403377:	48 8b 95 58 fe ff ff 	mov    rdx,QWORD PTR [rbp-0x1a8]
  40337e:	48 8b 9d 50 fe ff ff 	mov    rbx,QWORD PTR [rbp-0x1b0]
  403385:	48 ff c2             	inc    rdx
  403388:	48 89 85 50 fe ff ff 	mov    QWORD PTR [rbp-0x1b0],rax
  40338f:	48 89 95 58 fe ff ff 	mov    QWORD PTR [rbp-0x1a8],rdx
  403396:	48 52                	rex.W push rdx
  403398:	48 50                	rex.W push rax
  40339a:	40 b7 24             	mov    dil,0x24
  40339d:	e8 5a 3f 00 00       	call   4072fc <_D3std9algorithm41__T10startsWithVAyaa6_61203d3d2062TAxaTaZ10startsWithFAxaaZb>
  4033a2:	48 83 c4 10          	add    rsp,0x10
  4033a6:	84 c0                	test   al,al
  4033a8:	74 0a                	je     4033b4 <_D3std6format18__T10FormatSpecTaZ10FormatSpec6fillUpMFZv+0xaf8>
  4033aa:	48 8b 4d f0          	mov    rcx,QWORD PTR [rbp-0x10]
  4033ae:	c6 41 0a ff          	mov    BYTE PTR [rcx+0xa],0xff
  4033b2:	eb 13                	jmp    4033c7 <_D3std6format18__T10FormatSpecTaZ10FormatSpec6fillUpMFZv+0xb0b>
  4033b4:	48 8d bd 50 fe ff ff 	lea    rdi,[rbp-0x1b0]
  4033bb:	e8 f8 3f 00 00       	call   4073b8 <_D3std4conv16__T5parseThTAxaZ5parseFKAxaZh>
  4033c0:	48 8b 75 f0          	mov    rsi,QWORD PTR [rbp-0x10]
  4033c4:	88 46 0a             	mov    BYTE PTR [rsi+0xa],al
  4033c7:	48 8b 85 58 fe ff ff 	mov    rax,QWORD PTR [rbp-0x1a8]
  4033ce:	48 8b 55 f0          	mov    rdx,QWORD PTR [rbp-0x10]
  4033d2:	48 83 c2 30          	add    rdx,0x30
  4033d6:	48 8b 4a 08          	mov    rcx,QWORD PTR [rdx+0x8]
  4033da:	48 8b 1a             	mov    rbx,QWORD PTR [rdx]
  4033dd:	48 2b c1             	sub    rax,rcx
  4033e0:	48 89 85 90 fc ff ff 	mov    QWORD PTR [rbp-0x370],rax
  4033e7:	48 8b bd 90 fc ff ff 	mov    rdi,QWORD PTR [rbp-0x370]
  4033ee:	48 ff 85 90 fc ff ff 	inc    QWORD PTR [rbp-0x370]
  4033f5:	48 89 bd a0 fe ff ff 	mov    QWORD PTR [rbp-0x160],rdi
  4033fc:	48 8b 02             	mov    rax,QWORD PTR [rdx]
  4033ff:	48 8b 52 08          	mov    rdx,QWORD PTR [rdx+0x8]
  403403:	48 89 85 90 fe ff ff 	mov    QWORD PTR [rbp-0x170],rax
  40340a:	48 89 95 98 fe ff ff 	mov    QWORD PTR [rbp-0x168],rdx
  403411:	48 3b f8             	cmp    rdi,rax
  403414:	72 0a                	jb     403420 <_D3std6format18__T10FormatSpecTaZ10FormatSpec6fillUpMFZv+0xb64>
  403416:	bf 7e 03 00 00       	mov    edi,0x37e
  40341b:	e8 ec be 00 00       	call   40f30c <_D3std6format7__arrayZ>
  403420:	48 8b 95 98 fe ff ff 	mov    rdx,QWORD PTR [rbp-0x168]
  403427:	48 8b 85 90 fe ff ff 	mov    rax,QWORD PTR [rbp-0x170]
  40342e:	48 8b 8d a0 fe ff ff 	mov    rcx,QWORD PTR [rbp-0x160]
  403435:	40 8a 34 0a          	mov    sil,BYTE PTR [rdx+rcx*1]
  403439:	40 80 fe 24          	cmp    sil,0x24
  40343d:	be 01 00 00 00       	mov    esi,0x1
  403442:	74 02                	je     403446 <_D3std6format18__T10FormatSpecTaZ10FormatSpec6fillUpMFZv+0xb8a>
  403444:	31 f6                	xor    esi,esi
  403446:	48 8d 5d f0          	lea    rbx,[rbp-0x10]
  40344a:	48 ba 98 3a 40 00 00 	movabs rdx,0x403a98
  403451:	00 00 00 
  403454:	52                   	push   rdx
  403455:	53                   	push   rbx
  403456:	ff 35 2c 2b 02 00    	push   QWORD PTR [rip+0x22b2c]        # 425f88 <_TMP5+0x8>
  40345c:	ff 35 1e 2b 02 00    	push   QWORD PTR [rip+0x22b1e]        # 425f80 <_TMP5>
  403462:	48 bf 7e 03 00 00 00 	movabs rdi,0x37e
  403469:	00 00 00 
  40346c:	e8 8b 12 00 00       	call   4046fc <_D3std9exception44__T9enforceExTC3std6format15FormatExceptionZ16__T9enforceExTbZ9enforceExFNaNfbLAyaAyamZb>
  403471:	48 83 c4 20          	add    rsp,0x20
  403475:	e9 8e f4 ff ff       	jmp    402908 <_D3std6format18__T10FormatSpecTaZ10FormatSpec6fillUpMFZv+0x4c>
  40347a:	8b bd 78 fe ff ff    	mov    edi,DWORD PTR [rbp-0x188]
  403480:	e8 4f 40 00 00       	call   4074d4 <_D3std4conv9__T2toTiZ10__T2toTxkZ2toFxkZi>
  403485:	48 8b 4d f0          	mov    rcx,QWORD PTR [rbp-0x10]
  403489:	89 01                	mov    DWORD PTR [rcx],eax
  40348b:	e9 78 f4 ff ff       	jmp    402908 <_D3std6format18__T10FormatSpecTaZ10FormatSpec6fillUpMFZv+0x4c>
  403490:	48 ff 85 90 fc ff ff 	inc    QWORD PTR [rbp-0x370]
  403497:	48 8b 85 90 fc ff ff 	mov    rax,QWORD PTR [rbp-0x370]
  40349e:	48 89 85 c0 fe ff ff 	mov    QWORD PTR [rbp-0x140],rax
  4034a5:	48 8b 55 f0          	mov    rdx,QWORD PTR [rbp-0x10]
  4034a9:	48 8b 5a 30          	mov    rbx,QWORD PTR [rdx+0x30]
  4034ad:	48 8b 52 38          	mov    rdx,QWORD PTR [rdx+0x38]
  4034b1:	48 89 9d b0 fe ff ff 	mov    QWORD PTR [rbp-0x150],rbx
  4034b8:	48 89 95 b8 fe ff ff 	mov    QWORD PTR [rbp-0x148],rdx
  4034bf:	48 3b c3             	cmp    rax,rbx
  4034c2:	72 0a                	jb     4034ce <_D3std6format18__T10FormatSpecTaZ10FormatSpec6fillUpMFZv+0xc12>
  4034c4:	bf 89 03 00 00       	mov    edi,0x389
  4034c9:	e8 3e be 00 00       	call   40f30c <_D3std6format7__arrayZ>
  4034ce:	48 8b 95 b8 fe ff ff 	mov    rdx,QWORD PTR [rbp-0x148]
  4034d5:	48 8b c3             	mov    rax,rbx
  4034d8:	48 8b 8d c0 fe ff ff 	mov    rcx,QWORD PTR [rbp-0x140]
  4034df:	40 8a 34 0a          	mov    sil,BYTE PTR [rdx+rcx*1]
  4034e3:	40 80 fe 2a          	cmp    sil,0x2a
  4034e7:	0f 85 8f 01 00 00    	jne    40367c <_D3std6format18__T10FormatSpecTaZ10FormatSpec6fillUpMFZv+0xdc0>
  4034ed:	48 ff 85 90 fc ff ff 	inc    QWORD PTR [rbp-0x370]
  4034f4:	48 8b 9d 90 fc ff ff 	mov    rbx,QWORD PTR [rbp-0x370]
  4034fb:	48 89 9d e0 fe ff ff 	mov    QWORD PTR [rbp-0x120],rbx
  403502:	48 8b 7d f0          	mov    rdi,QWORD PTR [rbp-0x10]
  403506:	48 8b 57 38          	mov    rdx,QWORD PTR [rdi+0x38]
  40350a:	48 8b 47 30          	mov    rax,QWORD PTR [rdi+0x30]
  40350e:	48 89 85 d0 fe ff ff 	mov    QWORD PTR [rbp-0x130],rax
  403515:	48 89 95 d8 fe ff ff 	mov    QWORD PTR [rbp-0x128],rdx
  40351c:	48 3b d8             	cmp    rbx,rax
  40351f:	72 0a                	jb     40352b <_D3std6format18__T10FormatSpecTaZ10FormatSpec6fillUpMFZv+0xc6f>
  403521:	bf 8b 03 00 00       	mov    edi,0x38b
  403526:	e8 e1 bd 00 00       	call   40f30c <_D3std6format7__arrayZ>
  40352b:	48 8b 95 d8 fe ff ff 	mov    rdx,QWORD PTR [rbp-0x128]
  403532:	48 8b 85 d0 fe ff ff 	mov    rax,QWORD PTR [rbp-0x130]
  403539:	40 0f b6 3c 1a       	rex movzx edi,BYTE PTR [rdx+rbx*1]
  40353e:	e8 25 bb 00 00       	call   40f068 <_D3std5ascii7isDigitFNaNbNfwZb>
  403543:	84 c0                	test   al,al
  403545:	0f 84 21 01 00 00    	je     40366c <_D3std6format18__T10FormatSpecTaZ10FormatSpec6fillUpMFZv+0xdb0>
  40354b:	48 8b 4d f0          	mov    rcx,QWORD PTR [rbp-0x10]
  40354f:	48 8b 51 38          	mov    rdx,QWORD PTR [rcx+0x38]
  403553:	48 8b 41 30          	mov    rax,QWORD PTR [rcx+0x30]
  403557:	48 89 85 f0 fe ff ff 	mov    QWORD PTR [rbp-0x110],rax
  40355e:	48 89 95 f8 fe ff ff 	mov    QWORD PTR [rbp-0x108],rdx
  403565:	48 89 85 00 ff ff ff 	mov    QWORD PTR [rbp-0x100],rax
  40356c:	48 39 c0             	cmp    rax,rax
  40356f:	77 09                	ja     40357a <_D3std6format18__T10FormatSpecTaZ10FormatSpec6fillUpMFZv+0xcbe>
  403571:	48 39 85 90 fc ff ff 	cmp    QWORD PTR [rbp-0x370],rax
  403578:	76 0a                	jbe    403584 <_D3std6format18__T10FormatSpecTaZ10FormatSpec6fillUpMFZv+0xcc8>
  40357a:	bf 8f 03 00 00       	mov    edi,0x38f
  40357f:	e8 88 bd 00 00       	call   40f30c <_D3std6format7__arrayZ>
  403584:	48 8b b5 00 ff ff ff 	mov    rsi,QWORD PTR [rbp-0x100]
  40358b:	48 2b b5 90 fc ff ff 	sub    rsi,QWORD PTR [rbp-0x370]
  403592:	48 8b 95 f8 fe ff ff 	mov    rdx,QWORD PTR [rbp-0x108]
  403599:	48 8b 85 f0 fe ff ff 	mov    rax,QWORD PTR [rbp-0x110]
  4035a0:	48 03 95 90 fc ff ff 	add    rdx,QWORD PTR [rbp-0x370]
  4035a7:	48 8b 4d f0          	mov    rcx,QWORD PTR [rbp-0x10]
  4035ab:	48 89 71 30          	mov    QWORD PTR [rcx+0x30],rsi
  4035af:	48 89 51 38          	mov    QWORD PTR [rcx+0x38],rdx
  4035b3:	48 c7 85 90 fc ff ff 	mov    QWORD PTR [rbp-0x370],0x0
  4035ba:	00 00 00 00 
  4035be:	48 8b 7d f0          	mov    rdi,QWORD PTR [rbp-0x10]
  4035c2:	48 83 c7 30          	add    rdi,0x30
  4035c6:	e8 09 35 00 00       	call   406ad4 <_D3std4conv16__T5parseTiTAxaZ5parseFKAxaZi>
  4035cb:	f7 d8                	neg    eax
  4035cd:	48 8b 5d f0          	mov    rbx,QWORD PTR [rbp-0x10]
  4035d1:	89 43 04             	mov    DWORD PTR [rbx+0x4],eax
  4035d4:	48 8b b5 90 fc ff ff 	mov    rsi,QWORD PTR [rbp-0x370]
  4035db:	48 ff 85 90 fc ff ff 	inc    QWORD PTR [rbp-0x370]
  4035e2:	48 89 b5 20 ff ff ff 	mov    QWORD PTR [rbp-0xe0],rsi
  4035e9:	48 8b 45 f0          	mov    rax,QWORD PTR [rbp-0x10]
  4035ed:	48 8b 50 38          	mov    rdx,QWORD PTR [rax+0x38]
  4035f1:	48 8b 40 30          	mov    rax,QWORD PTR [rax+0x30]
  4035f5:	48 89 85 10 ff ff ff 	mov    QWORD PTR [rbp-0xf0],rax
  4035fc:	48 89 95 18 ff ff ff 	mov    QWORD PTR [rbp-0xe8],rdx
  403603:	48 3b f0             	cmp    rsi,rax
  403606:	72 0a                	jb     403612 <_D3std6format18__T10FormatSpecTaZ10FormatSpec6fillUpMFZv+0xd56>
  403608:	bf 93 03 00 00       	mov    edi,0x393
  40360d:	e8 fa bc 00 00       	call   40f30c <_D3std6format7__arrayZ>
  403612:	48 8b 95 18 ff ff ff 	mov    rdx,QWORD PTR [rbp-0xe8]
  403619:	48 8b 85 10 ff ff ff 	mov    rax,QWORD PTR [rbp-0xf0]
  403620:	48 8b 8d 20 ff ff ff 	mov    rcx,QWORD PTR [rbp-0xe0]
  403627:	40 8a 34 0a          	mov    sil,BYTE PTR [rdx+rcx*1]
  40362b:	40 80 fe 24          	cmp    sil,0x24
  40362f:	be 01 00 00 00       	mov    esi,0x1
  403634:	74 02                	je     403638 <_D3std6format18__T10FormatSpecTaZ10FormatSpec6fillUpMFZv+0xd7c>
  403636:	31 f6                	xor    esi,esi
  403638:	48 8d 5d f0          	lea    rbx,[rbp-0x10]
  40363c:	48 ba b4 3a 40 00 00 	movabs rdx,0x403ab4
  403643:	00 00 00 
  403646:	52                   	push   rdx
  403647:	53                   	push   rbx
  403648:	ff 35 3a 29 02 00    	push   QWORD PTR [rip+0x2293a]        # 425f88 <_TMP5+0x8>
  40364e:	ff 35 2c 29 02 00    	push   QWORD PTR [rip+0x2292c]        # 425f80 <_TMP5>
  403654:	48 bf 93 03 00 00 00 	movabs rdi,0x393
  40365b:	00 00 00 
  40365e:	e8 99 10 00 00       	call   4046fc <_D3std9exception44__T9enforceExTC3std6format15FormatExceptionZ16__T9enforceExTbZ9enforceExFNaNfbLAyaAyamZb>
  403663:	48 83 c4 20          	add    rsp,0x20
  403667:	e9 9c f2 ff ff       	jmp    402908 <_D3std6format18__T10FormatSpecTaZ10FormatSpec6fillUpMFZv+0x4c>
  40366c:	48 8b 45 f0          	mov    rax,QWORD PTR [rbp-0x10]
  403670:	c7 40 04 ff ff ff 7f 	mov    DWORD PTR [rax+0x4],0x7fffffff
  403677:	e9 8c f2 ff ff       	jmp    402908 <_D3std6format18__T10FormatSpecTaZ10FormatSpec6fillUpMFZv+0x4c>
  40367c:	48 8b 8d 90 fc ff ff 	mov    rcx,QWORD PTR [rbp-0x370]
  403683:	48 8b 5d f0          	mov    rbx,QWORD PTR [rbp-0x10]
  403687:	48 8b 53 38          	mov    rdx,QWORD PTR [rbx+0x38]
  40368b:	48 8b 43 30          	mov    rax,QWORD PTR [rbx+0x30]
  40368f:	48 89 85 30 ff ff ff 	mov    QWORD PTR [rbp-0xd0],rax
  403696:	48 89 95 38 ff ff ff 	mov    QWORD PTR [rbp-0xc8],rdx
  40369d:	48 3b c8             	cmp    rcx,rax
  4036a0:	72 0a                	jb     4036ac <_D3std6format18__T10FormatSpecTaZ10FormatSpec6fillUpMFZv+0xdf0>
  4036a2:	bf 9c 03 00 00       	mov    edi,0x39c
  4036a7:	e8 60 bc 00 00       	call   40f30c <_D3std6format7__arrayZ>
  4036ac:	48 8b 95 38 ff ff ff 	mov    rdx,QWORD PTR [rbp-0xc8]
  4036b3:	48 8b 85 30 ff ff ff 	mov    rax,QWORD PTR [rbp-0xd0]
  4036ba:	48 8b 8d 90 fc ff ff 	mov    rcx,QWORD PTR [rbp-0x370]
  4036c1:	8a 1c 0a             	mov    bl,BYTE PTR [rdx+rcx*1]
  4036c4:	80 fb 2d             	cmp    bl,0x2d
  4036c7:	0f 85 a3 00 00 00    	jne    403770 <_D3std6format18__T10FormatSpecTaZ10FormatSpec6fillUpMFZv+0xeb4>
  4036cd:	48 8b 75 f0          	mov    rsi,QWORD PTR [rbp-0x10]
  4036d1:	c7 46 04 00 00 00 00 	mov    DWORD PTR [rsi+0x4],0x0
  4036d8:	48 8b 7d f0          	mov    rdi,QWORD PTR [rbp-0x10]
  4036dc:	48 8b 57 38          	mov    rdx,QWORD PTR [rdi+0x38]
  4036e0:	48 8b 47 30          	mov    rax,QWORD PTR [rdi+0x30]
  4036e4:	48 89 85 50 ff ff ff 	mov    QWORD PTR [rbp-0xb0],rax
  4036eb:	48 89 95 58 ff ff ff 	mov    QWORD PTR [rbp-0xa8],rdx
  4036f2:	48 89 85 60 ff ff ff 	mov    QWORD PTR [rbp-0xa0],rax
  4036f9:	48 39 c0             	cmp    rax,rax
  4036fc:	77 09                	ja     403707 <_D3std6format18__T10FormatSpecTaZ10FormatSpec6fillUpMFZv+0xe4b>
  4036fe:	48 39 85 90 fc ff ff 	cmp    QWORD PTR [rbp-0x370],rax
  403705:	76 0a                	jbe    403711 <_D3std6format18__T10FormatSpecTaZ10FormatSpec6fillUpMFZv+0xe55>
  403707:	bf a0 03 00 00       	mov    edi,0x3a0
  40370c:	e8 fb bb 00 00       	call   40f30c <_D3std6format7__arrayZ>
  403711:	48 8b 9d 60 ff ff ff 	mov    rbx,QWORD PTR [rbp-0xa0]
  403718:	48 2b 9d 90 fc ff ff 	sub    rbx,QWORD PTR [rbp-0x370]
  40371f:	48 8b 95 58 ff ff ff 	mov    rdx,QWORD PTR [rbp-0xa8]
  403726:	48 8b 85 50 ff ff ff 	mov    rax,QWORD PTR [rbp-0xb0]
  40372d:	48 03 95 90 fc ff ff 	add    rdx,QWORD PTR [rbp-0x370]
  403734:	48 89 9d 40 ff ff ff 	mov    QWORD PTR [rbp-0xc0],rbx
  40373b:	48 89 95 48 ff ff ff 	mov    QWORD PTR [rbp-0xb8],rdx
  403742:	48 8d bd 40 ff ff ff 	lea    rdi,[rbp-0xc0]
  403749:	e8 86 33 00 00       	call   406ad4 <_D3std4conv16__T5parseTiTAxaZ5parseFKAxaZi>
  40374e:	48 8b 8d 48 ff ff ff 	mov    rcx,QWORD PTR [rbp-0xb8]
  403755:	48 8b 75 f0          	mov    rsi,QWORD PTR [rbp-0x10]
  403759:	48 8b 56 38          	mov    rdx,QWORD PTR [rsi+0x38]
  40375d:	48 8b 46 30          	mov    rax,QWORD PTR [rsi+0x30]
  403761:	48 2b ca             	sub    rcx,rdx
  403764:	48 89 8d 90 fc ff ff 	mov    QWORD PTR [rbp-0x370],rcx
  40376b:	e9 98 f1 ff ff       	jmp    402908 <_D3std6format18__T10FormatSpecTaZ10FormatSpec6fillUpMFZv+0x4c>
  403770:	48 8b 9d 90 fc ff ff 	mov    rbx,QWORD PTR [rbp-0x370]
  403777:	48 8b 7d f0          	mov    rdi,QWORD PTR [rbp-0x10]
  40377b:	48 8b 57 38          	mov    rdx,QWORD PTR [rdi+0x38]
  40377f:	48 8b 47 30          	mov    rax,QWORD PTR [rdi+0x30]
  403783:	48 89 85 70 ff ff ff 	mov    QWORD PTR [rbp-0x90],rax
  40378a:	48 89 95 78 ff ff ff 	mov    QWORD PTR [rbp-0x88],rdx
  403791:	48 3b d8             	cmp    rbx,rax
  403794:	72 0a                	jb     4037a0 <_D3std6format18__T10FormatSpecTaZ10FormatSpec6fillUpMFZv+0xee4>
  403796:	bf a4 03 00 00       	mov    edi,0x3a4
  40379b:	e8 6c bb 00 00       	call   40f30c <_D3std6format7__arrayZ>
  4037a0:	48 8b 95 78 ff ff ff 	mov    rdx,QWORD PTR [rbp-0x88]
  4037a7:	48 8b 85 70 ff ff ff 	mov    rax,QWORD PTR [rbp-0x90]
  4037ae:	48 8b 8d 90 fc ff ff 	mov    rcx,QWORD PTR [rbp-0x370]
  4037b5:	40 0f b6 3c 0a       	rex movzx edi,BYTE PTR [rdx+rcx*1]
  4037ba:	e8 a9 b8 00 00       	call   40f068 <_D3std5ascii7isDigitFNaNbNfwZb>
  4037bf:	84 c0                	test   al,al
  4037c1:	0f 84 81 00 00 00    	je     403848 <_D3std6format18__T10FormatSpecTaZ10FormatSpec6fillUpMFZv+0xf8c>
  4037c7:	48 8b 5d f0          	mov    rbx,QWORD PTR [rbp-0x10]
  4037cb:	48 8b 53 38          	mov    rdx,QWORD PTR [rbx+0x38]
  4037cf:	48 8b 43 30          	mov    rax,QWORD PTR [rbx+0x30]
  4037d3:	48 89 45 90          	mov    QWORD PTR [rbp-0x70],rax
  4037d7:	48 89 55 98          	mov    QWORD PTR [rbp-0x68],rdx
  4037db:	48 89 45 a0          	mov    QWORD PTR [rbp-0x60],rax
  4037df:	48 39 c0             	cmp    rax,rax
  4037e2:	77 09                	ja     4037ed <_D3std6format18__T10FormatSpecTaZ10FormatSpec6fillUpMFZv+0xf31>
  4037e4:	48 39 85 90 fc ff ff 	cmp    QWORD PTR [rbp-0x370],rax
  4037eb:	76 0a                	jbe    4037f7 <_D3std6format18__T10FormatSpecTaZ10FormatSpec6fillUpMFZv+0xf3b>
  4037ed:	bf a6 03 00 00       	mov    edi,0x3a6
  4037f2:	e8 15 bb 00 00       	call   40f30c <_D3std6format7__arrayZ>
  4037f7:	48 8b 75 a0          	mov    rsi,QWORD PTR [rbp-0x60]
  4037fb:	48 2b b5 90 fc ff ff 	sub    rsi,QWORD PTR [rbp-0x370]
  403802:	48 8b 55 98          	mov    rdx,QWORD PTR [rbp-0x68]
  403806:	48 8b 45 90          	mov    rax,QWORD PTR [rbp-0x70]
  40380a:	48 03 95 90 fc ff ff 	add    rdx,QWORD PTR [rbp-0x370]
  403811:	48 89 75 80          	mov    QWORD PTR [rbp-0x80],rsi
  403815:	48 89 55 88          	mov    QWORD PTR [rbp-0x78],rdx
  403819:	48 8d 7d 80          	lea    rdi,[rbp-0x80]
  40381d:	e8 b2 32 00 00       	call   406ad4 <_D3std4conv16__T5parseTiTAxaZ5parseFKAxaZi>
  403822:	48 8b 4d f0          	mov    rcx,QWORD PTR [rbp-0x10]
  403826:	89 41 04             	mov    DWORD PTR [rcx+0x4],eax
  403829:	48 8b 5d 88          	mov    rbx,QWORD PTR [rbp-0x78]
  40382d:	48 8b 75 f0          	mov    rsi,QWORD PTR [rbp-0x10]
  403831:	48 8b 56 38          	mov    rdx,QWORD PTR [rsi+0x38]
  403835:	48 8b 46 30          	mov    rax,QWORD PTR [rsi+0x30]
  403839:	48 2b da             	sub    rbx,rdx
  40383c:	48 89 9d 90 fc ff ff 	mov    QWORD PTR [rbp-0x370],rbx
  403843:	e9 c0 f0 ff ff       	jmp    402908 <_D3std6format18__T10FormatSpecTaZ10FormatSpec6fillUpMFZv+0x4c>
  403848:	48 8b 7d f0          	mov    rdi,QWORD PTR [rbp-0x10]
  40384c:	c7 47 04 00 00 00 00 	mov    DWORD PTR [rdi+0x4],0x0
  403853:	e9 b0 f0 ff ff       	jmp    402908 <_D3std6format18__T10FormatSpecTaZ10FormatSpec6fillUpMFZv+0x4c>
  403858:	48 8b 8d 90 fc ff ff 	mov    rcx,QWORD PTR [rbp-0x370]
  40385f:	48 ff 85 90 fc ff ff 	inc    QWORD PTR [rbp-0x370]
  403866:	48 89 4d c0          	mov    QWORD PTR [rbp-0x40],rcx
  40386a:	48 8b 5d f0          	mov    rbx,QWORD PTR [rbp-0x10]
  40386e:	48 8b 53 38          	mov    rdx,QWORD PTR [rbx+0x38]
  403872:	48 8b 43 30          	mov    rax,QWORD PTR [rbx+0x30]
  403876:	48 89 45 b0          	mov    QWORD PTR [rbp-0x50],rax
  40387a:	48 89 55 b8          	mov    QWORD PTR [rbp-0x48],rdx
  40387e:	48 3b c8             	cmp    rcx,rax
  403881:	72 0a                	jb     40388d <_D3std6format18__T10FormatSpecTaZ10FormatSpec6fillUpMFZv+0xfd1>
  403883:	bf b2 03 00 00       	mov    edi,0x3b2
  403888:	e8 7f ba 00 00       	call   40f30c <_D3std6format7__arrayZ>
  40388d:	48 8b 55 b8          	mov    rdx,QWORD PTR [rbp-0x48]
  403891:	48 8b 45 b0          	mov    rax,QWORD PTR [rbp-0x50]
  403895:	48 8b 4d c0          	mov    rcx,QWORD PTR [rbp-0x40]
  403899:	8a 1c 0a             	mov    bl,BYTE PTR [rdx+rcx*1]
  40389c:	48 8b 75 f0          	mov    rsi,QWORD PTR [rbp-0x10]
  4038a0:	88 5e 08             	mov    BYTE PTR [rsi+0x8],bl
  4038a3:	48 8b 7d f0          	mov    rdi,QWORD PTR [rbp-0x10]
  4038a7:	48 8b 57 38          	mov    rdx,QWORD PTR [rdi+0x38]
  4038ab:	48 8b 47 30          	mov    rax,QWORD PTR [rdi+0x30]
  4038af:	48 89 45 d0          	mov    QWORD PTR [rbp-0x30],rax
  4038b3:	48 89 55 d8          	mov    QWORD PTR [rbp-0x28],rdx
  4038b7:	48 89 45 e0          	mov    QWORD PTR [rbp-0x20],rax
  4038bb:	48 39 c0             	cmp    rax,rax
  4038be:	77 09                	ja     4038c9 <_D3std6format18__T10FormatSpecTaZ10FormatSpec6fillUpMFZv+0x100d>
  4038c0:	48 39 85 90 fc ff ff 	cmp    QWORD PTR [rbp-0x370],rax
  4038c7:	76 0a                	jbe    4038d3 <_D3std6format18__T10FormatSpecTaZ10FormatSpec6fillUpMFZv+0x1017>
  4038c9:	bf b3 03 00 00       	mov    edi,0x3b3
  4038ce:	e8 39 ba 00 00       	call   40f30c <_D3std6format7__arrayZ>
  4038d3:	48 8b 5d e0          	mov    rbx,QWORD PTR [rbp-0x20]
  4038d7:	48 2b 9d 90 fc ff ff 	sub    rbx,QWORD PTR [rbp-0x370]
  4038de:	48 8b 55 d8          	mov    rdx,QWORD PTR [rbp-0x28]
  4038e2:	48 8b 45 d0          	mov    rax,QWORD PTR [rbp-0x30]
  4038e6:	48 03 95 90 fc ff ff 	add    rdx,QWORD PTR [rbp-0x370]
  4038ed:	48 8b 4d f0          	mov    rcx,QWORD PTR [rbp-0x10]
  4038f1:	48 89 59 30          	mov    QWORD PTR [rcx+0x30],rbx
  4038f5:	48 89 51 38          	mov    QWORD PTR [rcx+0x38],rdx
  4038f9:	5b                   	pop    rbx
  4038fa:	c9                   	leave  
  4038fb:	c3                   	ret    
  4038fc:	48 bf 40 0d 63 00 00 	movabs rdi,0x630d40
  403903:	00 00 00 
  403906:	e8 81 7c 00 00       	call   40b58c <_d_newclass>
  40390b:	48 89 45 e8          	mov    QWORD PTR [rbp-0x18],rax
  40390f:	ff 35 73 27 02 00    	push   QWORD PTR [rip+0x22773]        # 426088 <_TMP54+0x8>
  403915:	ff 35 65 27 02 00    	push   QWORD PTR [rip+0x22765]        # 426080 <_TMP54>
  40391b:	48 8b 75 f0          	mov    rsi,QWORD PTR [rbp-0x10]
  40391f:	ff 76 38             	push   QWORD PTR [rsi+0x38]
  403922:	ff 76 30             	push   QWORD PTR [rsi+0x30]
  403925:	e8 6e 30 00 00       	call   406998 <_D3std4conv17__T4textTAyaTAxaZ4textFAyaAxaZAya>
  40392a:	48 83 c4 20          	add    rsp,0x20
  40392e:	52                   	push   rdx
  40392f:	50                   	push   rax
  403930:	ff 35 52 26 02 00    	push   QWORD PTR [rip+0x22652]        # 425f88 <_TMP5+0x8>
  403936:	ff 35 44 26 02 00    	push   QWORD PTR [rip+0x22644]        # 425f80 <_TMP5>
  40393c:	48 ba b7 03 00 00 00 	movabs rdx,0x3b7
  403943:	00 00 00 
  403946:	48 31 f6             	xor    rsi,rsi
  403949:	48 8b 7d e8          	mov    rdi,QWORD PTR [rbp-0x18]
  40394d:	e8 5a 5e 00 00       	call   4097ac <_D6object9Exception6__ctorMFAyaAyamC6object9ThrowableZC9Exception>
  403952:	48 83 c4 20          	add    rsp,0x20
  403956:	48 89 c7             	mov    rdi,rax
  403959:	e8 c2 6e 00 00       	call   40a820 <_d_throwc>
  40395e:	5b                   	pop    rbx
  40395f:	c9                   	leave  
  403960:	c3                   	ret    
  403961:	90                   	nop
  403962:	90                   	nop
  403963:	90                   	nop

0000000000403964 <_D3std6format18__T10FormatSpecTaZ10FormatSpec6fillUpMFZv5checkMFbZv>:
  403964:	55                   	push   rbp
  403965:	48 8b ec             	mov    rbp,rsp
  403968:	48 83 ec 10          	sub    rsp,0x10
  40396c:	48 89 7d f0          	mov    QWORD PTR [rbp-0x10],rdi
  403970:	89 75 f8             	mov    DWORD PTR [rbp-0x8],esi
  403973:	40 8a 7d f8          	mov    dil,BYTE PTR [rbp-0x8]
  403977:	48 8b 45 f0          	mov    rax,QWORD PTR [rbp-0x10]
  40397b:	48 b9 94 39 40 00 00 	movabs rcx,0x403994
  403982:	00 00 00 
  403985:	51                   	push   rcx
  403986:	50                   	push   rax
  403987:	e8 d0 30 00 00       	call   406a5c <_D3std9exception133__T7enforceTbVAyaa53_2f7573722f696e636c7564652f7838365f36342d6c696e75782d676e752f646d642f70686f626f732f7374642f666f726d61742e64Vi789Z7enforceFNaNfbLAxaZb>
  40398c:	48 83 c4 10          	add    rsp,0x10
  403990:	c9                   	leave  
  403991:	c3                   	ret    
  403992:	90                   	nop
  403993:	90                   	nop

0000000000403994 <_D3std6format18__T10FormatSpecTaZ10FormatSpec6fillUpMFZv5checkMFbZv15__dgliteral1054MFZAxa>:
  403994:	55                   	push   rbp
  403995:	48 8b ec             	mov    rbp,rsp
  403998:	48 83 ec 18          	sub    rsp,0x18
  40399c:	53                   	push   rbx
  40399d:	48 89 7d f8          	mov    QWORD PTR [rbp-0x8],rdi
  4039a1:	ff 35 b1 26 02 00    	push   QWORD PTR [rip+0x226b1]        # 426058 <_TMP25+0x8>
  4039a7:	ff 35 a3 26 02 00    	push   QWORD PTR [rip+0x226a3]        # 426050 <_TMP25>
  4039ad:	48 8b 45 f8          	mov    rax,QWORD PTR [rbp-0x8]
  4039b1:	48 8b 08             	mov    rcx,QWORD PTR [rax]
  4039b4:	48 8b 51 30          	mov    rdx,QWORD PTR [rcx+0x30]
  4039b8:	48 89 55 f0          	mov    QWORD PTR [rbp-0x10],rdx
  4039bc:	48 39 d2             	cmp    rdx,rdx
  4039bf:	77 0c                	ja     4039cd <_D3std6format18__T10FormatSpecTaZ10FormatSpec6fillUpMFZv5checkMFbZv15__dgliteral1054MFZAxa+0x39>
  4039c1:	48 8b 98 a0 fc ff ff 	mov    rbx,QWORD PTR [rax-0x360]
  4039c8:	48 3b da             	cmp    rbx,rdx
  4039cb:	76 0a                	jbe    4039d7 <_D3std6format18__T10FormatSpecTaZ10FormatSpec6fillUpMFZv5checkMFbZv15__dgliteral1054MFZAxa+0x43>
  4039cd:	bf 16 03 00 00       	mov    edi,0x316
  4039d2:	e8 35 b9 00 00       	call   40f30c <_D3std6format7__arrayZ>
  4039d7:	48 8b 45 f0          	mov    rax,QWORD PTR [rbp-0x10]
  4039db:	48 8b 4d f8          	mov    rcx,QWORD PTR [rbp-0x8]
  4039df:	48 8b 91 a0 fc ff ff 	mov    rdx,QWORD PTR [rcx-0x360]
  4039e6:	48 2b c2             	sub    rax,rdx
  4039e9:	48 8b 19             	mov    rbx,QWORD PTR [rcx]
  4039ec:	48 8b 4b 38          	mov    rcx,QWORD PTR [rbx+0x38]
  4039f0:	48 8b 5b 30          	mov    rbx,QWORD PTR [rbx+0x30]
  4039f4:	48 03 ca             	add    rcx,rdx
  4039f7:	51                   	push   rcx
  4039f8:	50                   	push   rax
  4039f9:	e8 9a 2f 00 00       	call   406998 <_D3std4conv17__T4textTAyaTAxaZ4textFAyaAxaZAya>
  4039fe:	48 83 c4 20          	add    rsp,0x20
  403a02:	5b                   	pop    rbx
  403a03:	c9                   	leave  
  403a04:	c3                   	ret    
  403a05:	90                   	nop
  403a06:	90                   	nop
  403a07:	90                   	nop

0000000000403a08 <_D3std6format18__T10FormatSpecTaZ10FormatSpec6fillUpMFZv15__dgliteral1071MFZAya>:
  403a08:	55                   	push   rbp
  403a09:	48 8b ec             	mov    rbp,rsp
  403a0c:	48 83 ec 08          	sub    rsp,0x8
  403a10:	48 89 7d f8          	mov    QWORD PTR [rbp-0x8],rdi
  403a14:	48 8b 15 8d 26 02 00 	mov    rdx,QWORD PTR [rip+0x2268d]        # 4260a8 <_TMP55+0x8>
  403a1b:	48 8b 05 7e 26 02 00 	mov    rax,QWORD PTR [rip+0x2267e]        # 4260a0 <_TMP55>
  403a22:	c9                   	leave  
  403a23:	c3                   	ret    

0000000000403a24 <_D3std6format18__T10FormatSpecTaZ10FormatSpec6fillUpMFZv15__dgliteral1072MFZAya>:
  403a24:	55                   	push   rbp
  403a25:	48 8b ec             	mov    rbp,rsp
  403a28:	48 83 ec 18          	sub    rsp,0x18
  403a2c:	53                   	push   rbx
  403a2d:	48 89 7d f8          	mov    QWORD PTR [rbp-0x8],rdi
  403a31:	ff 35 a1 26 02 00    	push   QWORD PTR [rip+0x226a1]        # 4260d8 <_TMP56+0x8>
  403a37:	ff 35 93 26 02 00    	push   QWORD PTR [rip+0x22693]        # 4260d0 <_TMP56>
  403a3d:	48 8b 45 f8          	mov    rax,QWORD PTR [rbp-0x8]
  403a41:	48 8b 08             	mov    rcx,QWORD PTR [rax]
  403a44:	48 8b 51 30          	mov    rdx,QWORD PTR [rcx+0x30]
  403a48:	48 89 55 f0          	mov    QWORD PTR [rbp-0x10],rdx
  403a4c:	48 39 d2             	cmp    rdx,rdx
  403a4f:	77 0c                	ja     403a5d <_D3std6format18__T10FormatSpecTaZ10FormatSpec6fillUpMFZv15__dgliteral1072MFZAya+0x39>
  403a51:	48 8b 98 a0 fc ff ff 	mov    rbx,QWORD PTR [rax-0x360]
  403a58:	48 3b da             	cmp    rbx,rdx
  403a5b:	76 0a                	jbe    403a67 <_D3std6format18__T10FormatSpecTaZ10FormatSpec6fillUpMFZv15__dgliteral1072MFZAya+0x43>
  403a5d:	bf 67 03 00 00       	mov    edi,0x367
  403a62:	e8 a5 b8 00 00       	call   40f30c <_D3std6format7__arrayZ>
  403a67:	48 8b 45 f0          	mov    rax,QWORD PTR [rbp-0x10]
  403a6b:	48 8b 4d f8          	mov    rcx,QWORD PTR [rbp-0x8]
  403a6f:	48 8b 91 a0 fc ff ff 	mov    rdx,QWORD PTR [rcx-0x360]
  403a76:	48 2b c2             	sub    rax,rdx
  403a79:	48 8b 19             	mov    rbx,QWORD PTR [rcx]
  403a7c:	48 8b 4b 38          	mov    rcx,QWORD PTR [rbx+0x38]
  403a80:	48 8b 5b 30          	mov    rbx,QWORD PTR [rbx+0x30]
  403a84:	48 03 ca             	add    rcx,rdx
  403a87:	51                   	push   rcx
  403a88:	50                   	push   rax
  403a89:	e8 0a 2f 00 00       	call   406998 <_D3std4conv17__T4textTAyaTAxaZ4textFAyaAxaZAya>
  403a8e:	48 83 c4 20          	add    rsp,0x20
  403a92:	5b                   	pop    rbx
  403a93:	c9                   	leave  
  403a94:	c3                   	ret    
  403a95:	90                   	nop
  403a96:	90                   	nop
  403a97:	90                   	nop

0000000000403a98 <_D3std6format18__T10FormatSpecTaZ10FormatSpec6fillUpMFZv15__dgliteral1084MFZAya>:
  403a98:	55                   	push   rbp
  403a99:	48 8b ec             	mov    rbp,rsp
  403a9c:	48 83 ec 08          	sub    rsp,0x8
  403aa0:	48 89 7d f8          	mov    QWORD PTR [rbp-0x8],rdi
  403aa4:	48 8b 15 fd 25 02 00 	mov    rdx,QWORD PTR [rip+0x225fd]        # 4260a8 <_TMP55+0x8>
  403aab:	48 8b 05 ee 25 02 00 	mov    rax,QWORD PTR [rip+0x225ee]        # 4260a0 <_TMP55>
  403ab2:	c9                   	leave  
  403ab3:	c3                   	ret    

0000000000403ab4 <_D3std6format18__T10FormatSpecTaZ10FormatSpec6fillUpMFZv15__dgliteral1089MFZAya>:
  403ab4:	55                   	push   rbp
  403ab5:	48 8b ec             	mov    rbp,rsp
  403ab8:	48 83 ec 08          	sub    rsp,0x8
  403abc:	48 89 7d f8          	mov    QWORD PTR [rbp-0x8],rdi
  403ac0:	48 8b 15 e1 25 02 00 	mov    rdx,QWORD PTR [rip+0x225e1]        # 4260a8 <_TMP55+0x8>
  403ac7:	48 8b 05 d2 25 02 00 	mov    rax,QWORD PTR [rip+0x225d2]        # 4260a0 <_TMP55>
  403ace:	c9                   	leave  
  403acf:	c3                   	ret    

0000000000403ad0 <_D3std6format18__T10FormatSpecTaZ10FormatSpec12getCurFmtStrMxFZAya>:
  403ad0:	55                   	push   rbp
  403ad1:	48 8b ec             	mov    rbp,rsp
  403ad4:	48 83 ec 60          	sub    rsp,0x60
  403ad8:	48 89 7d f8          	mov    QWORD PTR [rbp-0x8],rdi
  403adc:	6a 00                	push   0x0
  403ade:	6a 00                	push   0x0
  403ae0:	e8 43 20 00 00       	call   405b28 <_D3std5array20__T8appenderTAyaTyaZ8appenderFAyaZS3std5array17__T8AppenderTAyaZ8Appender>
  403ae5:	48 83 c4 10          	add    rsp,0x10
  403ae9:	48 89 45 a8          	mov    QWORD PTR [rbp-0x58],rax
  403aed:	48 be 40 06 63 00 00 	movabs rsi,0x630640
  403af4:	00 00 00 
  403af7:	48 8d 7d b8          	lea    rdi,[rbp-0x48]
  403afb:	b9 08 00 00 00       	mov    ecx,0x8
  403b00:	f3 48 a5             	rep movs QWORD PTR es:[rdi],QWORD PTR ds:[rsi]
  403b03:	ff 35 ef 25 02 00    	push   QWORD PTR [rip+0x225ef]        # 4260f8 <_TMP57+0x8>
  403b09:	ff 35 e1 25 02 00    	push   QWORD PTR [rip+0x225e1]        # 4260f0 <_TMP57>
  403b0f:	48 8d 7d b8          	lea    rdi,[rbp-0x48]
  403b13:	e8 7c ed ff ff       	call   402894 <_D3std6format18__T10FormatSpecTaZ10FormatSpec6__ctorMFxAaZS3std6format18__T10FormatSpecTaZ10FormatSpec>
  403b18:	48 83 c4 10          	add    rsp,0x10
  403b1c:	48 8d 75 a8          	lea    rsi,[rbp-0x58]
  403b20:	40 b7 25             	mov    dil,0x25
  403b23:	e8 60 2b 00 00       	call   406688 <_D3std5range50__T3putTS3std5array17__T8AppenderTAyaZ8AppenderTaZ3putFKS3std5array17__T8AppenderTAyaZ8AppenderaZv>
  403b28:	48 8b 45 f8          	mov    rax,QWORD PTR [rbp-0x8]
  403b2c:	80 78 09 00          	cmp    BYTE PTR [rax+0x9],0x0
  403b30:	74 21                	je     403b53 <_D3std6format18__T10FormatSpecTaZ10FormatSpec12getCurFmtStrMxFZAya+0x83>
  403b32:	48 8b 55 a8          	mov    rdx,QWORD PTR [rbp-0x58]
  403b36:	48 8b 4d f8          	mov    rcx,QWORD PTR [rbp-0x8]
  403b3a:	40 8a 71 09          	mov    sil,BYTE PTR [rcx+0x9]
  403b3e:	48 8d 7d b8          	lea    rdi,[rbp-0x48]
  403b42:	e8 2d 3a 00 00       	call   407574 <_D3std6format62__T11formatValueTS3std5array17__T8AppenderTAyaZ8AppenderTxhTaZ11formatValueFS3std5array17__T8AppenderTAyaZ8AppenderxhKS3std6format18__T10FormatSpecTaZ10FormatSpecZv>
  403b47:	48 8d 75 a8          	lea    rsi,[rbp-0x58]
  403b4b:	40 b7 24             	mov    dil,0x24
  403b4e:	e8 35 2b 00 00       	call   406688 <_D3std5range50__T3putTS3std5array17__T8AppenderTAyaZ8AppenderTaZ3putFKS3std5array17__T8AppenderTAyaZ8AppenderaZv>
  403b53:	48 8b 7d f8          	mov    rdi,QWORD PTR [rbp-0x8]
  403b57:	e8 18 ea ff ff       	call   402574 <_D3std6format18__T10FormatSpecTaZ10FormatSpec6flDashMxFNdZb>
  403b5c:	84 c0                	test   al,al
  403b5e:	74 0c                	je     403b6c <_D3std6format18__T10FormatSpecTaZ10FormatSpec12getCurFmtStrMxFZAya+0x9c>
  403b60:	48 8d 75 a8          	lea    rsi,[rbp-0x58]
  403b64:	40 b7 2d             	mov    dil,0x2d
  403b67:	e8 1c 2b 00 00       	call   406688 <_D3std5range50__T3putTS3std5array17__T8AppenderTAyaZ8AppenderTaZ3putFKS3std5array17__T8AppenderTAyaZ8AppenderaZv>
  403b6c:	48 8b 7d f8          	mov    rdi,QWORD PTR [rbp-0x8]
  403b70:	e8 9f ea ff ff       	call   402614 <_D3std6format18__T10FormatSpecTaZ10FormatSpec6flZeroMxFNdZb>
  403b75:	84 c0                	test   al,al
  403b77:	74 0c                	je     403b85 <_D3std6format18__T10FormatSpecTaZ10FormatSpec12getCurFmtStrMxFZAya+0xb5>
  403b79:	48 8d 75 a8          	lea    rsi,[rbp-0x58]
  403b7d:	40 b7 30             	mov    dil,0x30
  403b80:	e8 03 2b 00 00       	call   406688 <_D3std5range50__T3putTS3std5array17__T8AppenderTAyaZ8AppenderTaZ3putFKS3std5array17__T8AppenderTAyaZ8AppenderaZv>
  403b85:	48 8b 7d f8          	mov    rdi,QWORD PTR [rbp-0x8]
  403b89:	e8 26 eb ff ff       	call   4026b4 <_D3std6format18__T10FormatSpecTaZ10FormatSpec7flSpaceMxFNdZb>
  403b8e:	84 c0                	test   al,al
  403b90:	74 0c                	je     403b9e <_D3std6format18__T10FormatSpecTaZ10FormatSpec12getCurFmtStrMxFZAya+0xce>
  403b92:	48 8d 75 a8          	lea    rsi,[rbp-0x58]
  403b96:	40 b7 20             	mov    dil,0x20
  403b99:	e8 ea 2a 00 00       	call   406688 <_D3std5range50__T3putTS3std5array17__T8AppenderTAyaZ8AppenderTaZ3putFKS3std5array17__T8AppenderTAyaZ8AppenderaZv>
  403b9e:	48 8b 7d f8          	mov    rdi,QWORD PTR [rbp-0x8]
  403ba2:	e8 ad eb ff ff       	call   402754 <_D3std6format18__T10FormatSpecTaZ10FormatSpec6flPlusMxFNdZb>
  403ba7:	84 c0                	test   al,al
  403ba9:	74 0c                	je     403bb7 <_D3std6format18__T10FormatSpecTaZ10FormatSpec12getCurFmtStrMxFZAya+0xe7>
  403bab:	48 8d 75 a8          	lea    rsi,[rbp-0x58]
  403baf:	40 b7 2b             	mov    dil,0x2b
  403bb2:	e8 d1 2a 00 00       	call   406688 <_D3std5range50__T3putTS3std5array17__T8AppenderTAyaZ8AppenderTaZ3putFKS3std5array17__T8AppenderTAyaZ8AppenderaZv>
  403bb7:	48 8b 7d f8          	mov    rdi,QWORD PTR [rbp-0x8]
  403bbb:	e8 34 ec ff ff       	call   4027f4 <_D3std6format18__T10FormatSpecTaZ10FormatSpec6flHashMxFNdZb>
  403bc0:	84 c0                	test   al,al
  403bc2:	74 0c                	je     403bd0 <_D3std6format18__T10FormatSpecTaZ10FormatSpec12getCurFmtStrMxFZAya+0x100>
  403bc4:	48 8d 75 a8          	lea    rsi,[rbp-0x58]
  403bc8:	40 b7 23             	mov    dil,0x23
  403bcb:	e8 b8 2a 00 00       	call   406688 <_D3std5range50__T3putTS3std5array17__T8AppenderTAyaZ8AppenderTaZ3putFKS3std5array17__T8AppenderTAyaZ8AppenderaZv>
  403bd0:	48 8b 45 f8          	mov    rax,QWORD PTR [rbp-0x8]
  403bd4:	83 38 00             	cmp    DWORD PTR [rax],0x0
  403bd7:	74 13                	je     403bec <_D3std6format18__T10FormatSpecTaZ10FormatSpec12getCurFmtStrMxFZAya+0x11c>
  403bd9:	48 8b 55 a8          	mov    rdx,QWORD PTR [rbp-0x58]
  403bdd:	48 8b 4d f8          	mov    rcx,QWORD PTR [rbp-0x8]
  403be1:	8b 31                	mov    esi,DWORD PTR [rcx]
  403be3:	48 8d 7d b8          	lea    rdi,[rbp-0x48]
  403be7:	e8 54 3a 00 00       	call   407640 <_D3std6format62__T11formatValueTS3std5array17__T8AppenderTAyaZ8AppenderTxiTaZ11formatValueFS3std5array17__T8AppenderTAyaZ8AppenderxiKS3std6format18__T10FormatSpecTaZ10FormatSpecZv>
  403bec:	48 8b 45 f8          	mov    rax,QWORD PTR [rbp-0x8]
  403bf0:	81 78 04 fe ff ff 7f 	cmp    DWORD PTR [rax+0x4],0x7ffffffe
  403bf7:	74 20                	je     403c19 <_D3std6format18__T10FormatSpecTaZ10FormatSpec12getCurFmtStrMxFZAya+0x149>
  403bf9:	48 8d 75 a8          	lea    rsi,[rbp-0x58]
  403bfd:	40 b7 2e             	mov    dil,0x2e
  403c00:	e8 83 2a 00 00       	call   406688 <_D3std5range50__T3putTS3std5array17__T8AppenderTAyaZ8AppenderTaZ3putFKS3std5array17__T8AppenderTAyaZ8AppenderaZv>
  403c05:	48 8b 55 a8          	mov    rdx,QWORD PTR [rbp-0x58]
  403c09:	48 8b 4d f8          	mov    rcx,QWORD PTR [rbp-0x8]
  403c0d:	8b 71 04             	mov    esi,DWORD PTR [rcx+0x4]
  403c10:	48 8d 7d b8          	lea    rdi,[rbp-0x48]
  403c14:	e8 27 3a 00 00       	call   407640 <_D3std6format62__T11formatValueTS3std5array17__T8AppenderTAyaZ8AppenderTxiTaZ11formatValueFS3std5array17__T8AppenderTAyaZ8AppenderxiKS3std6format18__T10FormatSpecTaZ10FormatSpecZv>
  403c19:	48 8d 75 a8          	lea    rsi,[rbp-0x58]
  403c1d:	48 8b 45 f8          	mov    rax,QWORD PTR [rbp-0x8]
  403c21:	40 8a 78 08          	mov    dil,BYTE PTR [rax+0x8]
  403c25:	e8 5a 24 00 00       	call   406084 <_D3std5range51__T3putTS3std5array17__T8AppenderTAyaZ8AppenderTxaZ3putFKS3std5array17__T8AppenderTAyaZ8AppenderxaZv>
  403c2a:	48 8d 7d a8          	lea    rdi,[rbp-0x58]
  403c2e:	e8 75 21 00 00       	call   405da8 <_D3std5array17__T8AppenderTAyaZ8Appender4dataMFNdZAya>
  403c33:	c9                   	leave  
  403c34:	c3                   	ret    
  403c35:	90                   	nop
  403c36:	90                   	nop
  403c37:	90                   	nop

0000000000403c38 <_D3std6format18__T10FormatSpecTaZ10FormatSpec16headUpToNextSpecMFZAxa>:
  403c38:	55                   	push   rbp
  403c39:	48 8b ec             	mov    rbp,rsp
  403c3c:	48 83 ec 38          	sub    rsp,0x38
  403c40:	53                   	push   rbx
  403c41:	48 89 7d f8          	mov    QWORD PTR [rbp-0x8],rdi
  403c45:	6a 00                	push   0x0
  403c47:	6a 00                	push   0x0
  403c49:	e8 c2 3b 00 00       	call   407810 <_D3std5array20__T8appenderTAxaTxaZ8appenderFAxaZS3std5array17__T8AppenderTAxaZ8Appender>
  403c4e:	48 83 c4 10          	add    rsp,0x10
  403c52:	48 89 45 d0          	mov    QWORD PTR [rbp-0x30],rax
  403c56:	48 8b 45 f8          	mov    rax,QWORD PTR [rbp-0x8]
  403c5a:	48 8b 50 38          	mov    rdx,QWORD PTR [rax+0x38]
  403c5e:	48 8b 40 30          	mov    rax,QWORD PTR [rax+0x30]
  403c62:	48 89 45 e0          	mov    QWORD PTR [rbp-0x20],rax
  403c66:	48 89 55 e8          	mov    QWORD PTR [rbp-0x18],rdx
  403c6a:	48 83 7d e0 00       	cmp    QWORD PTR [rbp-0x20],0x0
  403c6f:	0f 84 97 00 00 00    	je     403d0c <_D3std6format18__T10FormatSpecTaZ10FormatSpec16headUpToNextSpecMFZAxa+0xd4>
  403c75:	48 8b 4d e8          	mov    rcx,QWORD PTR [rbp-0x18]
  403c79:	80 39 25             	cmp    BYTE PTR [rcx],0x25
  403c7c:	75 65                	jne    403ce3 <_D3std6format18__T10FormatSpecTaZ10FormatSpec16headUpToNextSpecMFZAxa+0xab>
  403c7e:	48 bb 01 00 00 00 00 	movabs rbx,0x1
  403c85:	00 00 00 
  403c88:	48 39 5d e0          	cmp    QWORD PTR [rbp-0x20],rbx
  403c8c:	0f 86 7a 00 00 00    	jbe    403d0c <_D3std6format18__T10FormatSpecTaZ10FormatSpec16headUpToNextSpecMFZAxa+0xd4>
  403c92:	48 8b 75 e8          	mov    rsi,QWORD PTR [rbp-0x18]
  403c96:	80 7e 01 25          	cmp    BYTE PTR [rsi+0x1],0x25
  403c9a:	75 70                	jne    403d0c <_D3std6format18__T10FormatSpecTaZ10FormatSpec16headUpToNextSpecMFZAxa+0xd4>
  403c9c:	48 8b 7d e0          	mov    rdi,QWORD PTR [rbp-0x20]
  403ca0:	48 89 7d f0          	mov    QWORD PTR [rbp-0x10],rdi
  403ca4:	48 39 ff             	cmp    rdi,rdi
  403ca7:	77 06                	ja     403caf <_D3std6format18__T10FormatSpecTaZ10FormatSpec16headUpToNextSpecMFZAxa+0x77>
  403ca9:	48 83 ff 02          	cmp    rdi,0x2
  403cad:	73 0a                	jae    403cb9 <_D3std6format18__T10FormatSpecTaZ10FormatSpec16headUpToNextSpecMFZAxa+0x81>
  403caf:	bf 25 04 00 00       	mov    edi,0x425
  403cb4:	e8 53 b6 00 00       	call   40f30c <_D3std6format7__arrayZ>
  403cb9:	48 8b 45 f0          	mov    rax,QWORD PTR [rbp-0x10]
  403cbd:	48 8d 58 fe          	lea    rbx,[rax-0x2]
  403cc1:	48 8b 55 e8          	mov    rdx,QWORD PTR [rbp-0x18]
  403cc5:	48 8b 45 e0          	mov    rax,QWORD PTR [rbp-0x20]
  403cc9:	48 83 c2 02          	add    rdx,0x2
  403ccd:	48 89 5d e0          	mov    QWORD PTR [rbp-0x20],rbx
  403cd1:	48 89 55 e8          	mov    QWORD PTR [rbp-0x18],rdx
  403cd5:	40 b6 25             	mov    sil,0x25
  403cd8:	48 8d 7d d0          	lea    rdi,[rbp-0x30]
  403cdc:	e8 bf 3f 00 00       	call   407ca0 <_D3std5array17__T8AppenderTAxaZ8Appender10__T3putTaZ3putMFaZv>
  403ce1:	eb 87                	jmp    403c6a <_D3std6format18__T10FormatSpecTaZ10FormatSpec16headUpToNextSpecMFZAxa+0x32>
  403ce3:	ff 75 e8             	push   QWORD PTR [rbp-0x18]
  403ce6:	ff 75 e0             	push   QWORD PTR [rbp-0x20]
  403ce9:	e8 d6 15 00 00       	call   4052c4 <_D3std5array14__T5frontTAxaZ5frontFNdAxaZw>
  403cee:	48 83 c4 10          	add    rsp,0x10
  403cf2:	48 89 c6             	mov    rsi,rax
  403cf5:	48 8d 7d d0          	lea    rdi,[rbp-0x30]
  403cf9:	e8 2e 40 00 00       	call   407d2c <_D3std5array17__T8AppenderTAxaZ8Appender10__T3putTwZ3putMFwZv>
  403cfe:	48 8d 7d e0          	lea    rdi,[rbp-0x20]
  403d02:	e8 b9 18 00 00       	call   4055c0 <_D3std5array17__T8popFrontTAxaZ8popFrontFKAxaZv>
  403d07:	e9 5e ff ff ff       	jmp    403c6a <_D3std6format18__T10FormatSpecTaZ10FormatSpec16headUpToNextSpecMFZAxa+0x32>
  403d0c:	48 8d 7d d0          	lea    rdi,[rbp-0x30]
  403d10:	e8 7b 3d 00 00       	call   407a90 <_D3std5array17__T8AppenderTAxaZ8Appender4dataMFNdZAxa>
  403d15:	5b                   	pop    rbx
  403d16:	c9                   	leave  
  403d17:	c3                   	ret    

0000000000403d18 <_D3std6format18__T10FormatSpecTaZ10FormatSpec8toStringMFZAya>:
  403d18:	55                   	push   rbp
  403d19:	48 8b ec             	mov    rbp,rsp
  403d1c:	48 83 ec 10          	sub    rsp,0x10
  403d20:	48 89 7d f8          	mov    QWORD PTR [rbp-0x8],rdi
  403d24:	48 83 7d f8 00       	cmp    QWORD PTR [rbp-0x8],0x0
  403d29:	75 22                	jne    403d4d <_D3std6format18__T10FormatSpecTaZ10FormatSpec8toStringMFZAya+0x35>
  403d2b:	bf 34 04 00 00       	mov    edi,0x434
  403d30:	ff 35 d2 22 02 00    	push   QWORD PTR [rip+0x222d2]        # 426008 <_TMP11+0x8>
  403d36:	ff 35 c4 22 02 00    	push   QWORD PTR [rip+0x222c4]        # 426000 <_TMP11>
  403d3c:	ff 35 e6 22 02 00    	push   QWORD PTR [rip+0x222e6]        # 426028 <_TMP12+0x8>
  403d42:	ff 35 d8 22 02 00    	push   QWORD PTR [rip+0x222d8]        # 426020 <_TMP12>
  403d48:	e8 df 6f 00 00       	call   40ad2c <_d_assert_msg>
  403d4d:	ff 35 c5 23 02 00    	push   QWORD PTR [rip+0x223c5]        # 426118 <_TMP58+0x8>
  403d53:	ff 35 b7 23 02 00    	push   QWORD PTR [rip+0x223b7]        # 426110 <_TMP58>
  403d59:	48 83 ec 08          	sub    rsp,0x8
  403d5d:	ff 75 f8             	push   QWORD PTR [rbp-0x8]
  403d60:	ff 35 d2 23 02 00    	push   QWORD PTR [rip+0x223d2]        # 426138 <_TMP59+0x8>
  403d66:	ff 35 c4 23 02 00    	push   QWORD PTR [rip+0x223c4]        # 426130 <_TMP59>
  403d6c:	48 83 ec 08          	sub    rsp,0x8
  403d70:	48 8b 45 f8          	mov    rax,QWORD PTR [rbp-0x8]
  403d74:	ff 30                	push   QWORD PTR [rax]
  403d76:	ff 35 dc 23 02 00    	push   QWORD PTR [rip+0x223dc]        # 426158 <_TMP60+0x8>
  403d7c:	ff 35 ce 23 02 00    	push   QWORD PTR [rip+0x223ce]        # 426150 <_TMP60>
  403d82:	48 83 ec 08          	sub    rsp,0x8
  403d86:	ff 70 04             	push   QWORD PTR [rax+0x4]
  403d89:	ff 35 e9 23 02 00    	push   QWORD PTR [rip+0x223e9]        # 426178 <_TMP61+0x8>
  403d8f:	ff 35 db 23 02 00    	push   QWORD PTR [rip+0x223db]        # 426170 <_TMP61>
  403d95:	48 83 ec 08          	sub    rsp,0x8
  403d99:	40 ff 70 08          	rex push QWORD PTR [rax+0x8]
  403d9d:	ff 35 f5 23 02 00    	push   QWORD PTR [rip+0x223f5]        # 426198 <_TMP62+0x8>
  403da3:	ff 35 e7 23 02 00    	push   QWORD PTR [rip+0x223e7]        # 426190 <_TMP62>
  403da9:	48 83 ec 08          	sub    rsp,0x8
  403dad:	40 ff 70 09          	rex push QWORD PTR [rax+0x9]
  403db1:	ff 35 01 24 02 00    	push   QWORD PTR [rip+0x22401]        # 4261b8 <_TMP63+0x8>
  403db7:	ff 35 f3 23 02 00    	push   QWORD PTR [rip+0x223f3]        # 4261b0 <_TMP63>
  403dbd:	44 8a 48 0a          	mov    r9b,BYTE PTR [rax+0xa]
  403dc1:	ff 35 11 24 02 00    	push   QWORD PTR [rip+0x22411]        # 4261d8 <_TMP64+0x8>
  403dc7:	ff 35 03 24 02 00    	push   QWORD PTR [rip+0x22403]        # 4261d0 <_TMP64>
  403dcd:	41 51                	push   r9
  403dcf:	48 83 ec 08          	sub    rsp,0x8
  403dd3:	48 89 c7             	mov    rdi,rax
  403dd6:	e8 99 e7 ff ff       	call   402574 <_D3std6format18__T10FormatSpecTaZ10FormatSpec6flDashMxFNdZb>
  403ddb:	49 89 c0             	mov    r8,rax
  403dde:	48 83 c4 08          	add    rsp,0x8
  403de2:	41 59                	pop    r9
  403de4:	ff 35 0e 24 02 00    	push   QWORD PTR [rip+0x2240e]        # 4261f8 <_TMP65+0x8>
  403dea:	ff 35 00 24 02 00    	push   QWORD PTR [rip+0x22400]        # 4261f0 <_TMP65>
  403df0:	41 50                	push   r8
  403df2:	41 51                	push   r9
  403df4:	48 8b 7d f8          	mov    rdi,QWORD PTR [rbp-0x8]
  403df8:	e8 17 e8 ff ff       	call   402614 <_D3std6format18__T10FormatSpecTaZ10FormatSpec6flZeroMxFNdZb>
  403dfd:	48 89 c1             	mov    rcx,rax
  403e00:	41 59                	pop    r9
  403e02:	41 58                	pop    r8
  403e04:	ff 35 0e 24 02 00    	push   QWORD PTR [rip+0x2240e]        # 426218 <_TMP66+0x8>
  403e0a:	ff 35 00 24 02 00    	push   QWORD PTR [rip+0x22400]        # 426210 <_TMP66>
  403e10:	51                   	push   rcx
  403e11:	41 50                	push   r8
  403e13:	41 51                	push   r9
  403e15:	48 83 ec 08          	sub    rsp,0x8
  403e19:	48 8b 7d f8          	mov    rdi,QWORD PTR [rbp-0x8]
  403e1d:	e8 92 e8 ff ff       	call   4026b4 <_D3std6format18__T10FormatSpecTaZ10FormatSpec7flSpaceMxFNdZb>
  403e22:	48 89 c2             	mov    rdx,rax
  403e25:	48 83 c4 08          	add    rsp,0x8
  403e29:	41 59                	pop    r9
  403e2b:	41 58                	pop    r8
  403e2d:	59                   	pop    rcx
  403e2e:	ff 35 04 24 02 00    	push   QWORD PTR [rip+0x22404]        # 426238 <_TMP67+0x8>
  403e34:	ff 35 f6 23 02 00    	push   QWORD PTR [rip+0x223f6]        # 426230 <_TMP67>
  403e3a:	51                   	push   rcx
  403e3b:	52                   	push   rdx
  403e3c:	41 50                	push   r8
  403e3e:	41 51                	push   r9
  403e40:	48 8b 7d f8          	mov    rdi,QWORD PTR [rbp-0x8]
  403e44:	e8 0b e9 ff ff       	call   402754 <_D3std6format18__T10FormatSpecTaZ10FormatSpec6flPlusMxFNdZb>
  403e49:	48 89 c6             	mov    rsi,rax
  403e4c:	41 59                	pop    r9
  403e4e:	41 58                	pop    r8
  403e50:	5a                   	pop    rdx
  403e51:	59                   	pop    rcx
  403e52:	ff 35 00 24 02 00    	push   QWORD PTR [rip+0x22400]        # 426258 <_TMP68+0x8>
  403e58:	ff 35 f2 23 02 00    	push   QWORD PTR [rip+0x223f2]        # 426250 <_TMP68>
  403e5e:	51                   	push   rcx
  403e5f:	52                   	push   rdx
  403e60:	56                   	push   rsi
  403e61:	41 50                	push   r8
  403e63:	41 51                	push   r9
  403e65:	48 83 ec 08          	sub    rsp,0x8
  403e69:	48 8b 7d f8          	mov    rdi,QWORD PTR [rbp-0x8]
  403e6d:	e8 82 e9 ff ff       	call   4027f4 <_D3std6format18__T10FormatSpecTaZ10FormatSpec6flHashMxFNdZb>
  403e72:	48 89 c7             	mov    rdi,rax
  403e75:	48 83 c4 08          	add    rsp,0x8
  403e79:	41 59                	pop    r9
  403e7b:	41 58                	pop    r8
  403e7d:	5e                   	pop    rsi
  403e7e:	5a                   	pop    rdx
  403e7f:	59                   	pop    rcx
  403e80:	ff 35 f2 23 02 00    	push   QWORD PTR [rip+0x223f2]        # 426278 <_TMP69+0x8>
  403e86:	ff 35 e4 23 02 00    	push   QWORD PTR [rip+0x223e4]        # 426270 <_TMP69>
  403e8c:	48 8b 45 f8          	mov    rax,QWORD PTR [rbp-0x8]
  403e90:	ff 70 18             	push   QWORD PTR [rax+0x18]
  403e93:	ff 70 10             	push   QWORD PTR [rax+0x10]
  403e96:	ff 35 fc 23 02 00    	push   QWORD PTR [rip+0x223fc]        # 426298 <_TMP70+0x8>
  403e9c:	ff 35 ee 23 02 00    	push   QWORD PTR [rip+0x223ee]        # 426290 <_TMP70>
  403ea2:	ff 70 38             	push   QWORD PTR [rax+0x38]
  403ea5:	ff 70 30             	push   QWORD PTR [rax+0x30]
  403ea8:	ff 35 0a 24 02 00    	push   QWORD PTR [rip+0x2240a]        # 4262b8 <_TMP71+0x8>
  403eae:	ff 35 fc 23 02 00    	push   QWORD PTR [rip+0x223fc]        # 4262b0 <_TMP71>
  403eb4:	e8 b7 3f 00 00       	call   407e70 <_D3std4conv96__T4textTAyaTPvTAyaTiTAyaTiTAyaTaTAyaThTAyaThTAyaTbTAyaTbTAyaTbTAyaTbTAyaTbTAyaTAxaTAyaTAxaTAyaZ4textFAyaPvAyaiAyaiAyaaAyahAyahAyabAyabAyabAyabAyabAyaAxaAyaAxaAyaZAya>
  403eb9:	48 81 c4 50 01 00 00 	add    rsp,0x150
  403ec0:	c9                   	leave  
  403ec1:	c3                   	ret    
  403ec2:	90                   	nop
  403ec3:	90                   	nop

0000000000403ec4 <_D3std6format60__T13formatGenericTS3std5stdio4File17LockingTextWriterTPvTaZ13formatGenericFS3std5stdio4File17LockingTextWriterPxvKS3std6format18__T10FormatSpecTaZ10FormatSpecZv>:
  403ec4:	55                   	push   rbp
  403ec5:	48 8b ec             	mov    rbp,rsp
  403ec8:	48 83 ec 28          	sub    rsp,0x28
  403ecc:	53                   	push   rbx
  403ecd:	41 54                	push   r12
  403ecf:	41 55                	push   r13
  403ed1:	41 56                	push   r14
  403ed3:	41 57                	push   r15
  403ed5:	48 89 7d f0          	mov    QWORD PTR [rbp-0x10],rdi
  403ed9:	48 89 75 f8          	mov    QWORD PTR [rbp-0x8],rsi
  403edd:	48 83 ec 08          	sub    rsp,0x8
  403ee1:	48 83 ec 08          	sub    rsp,0x8
  403ee5:	48 8d 75 10          	lea    rsi,[rbp+0x10]
  403ee9:	48 8d 7d d8          	lea    rdi,[rbp-0x28]
  403eed:	e8 ce c3 00 00       	call   4102c0 <_D3std5stdio4File17LockingTextWriter8__cpctorMxFKxS3std5stdio4File17LockingTextWriterZv>
  403ef2:	48 83 c4 08          	add    rsp,0x8
  403ef6:	48 8d 5d d8          	lea    rbx,[rbp-0x28]
  403efa:	ff 73 10             	push   QWORD PTR [rbx+0x10]
  403efd:	ff 73 08             	push   QWORD PTR [rbx+0x8]
  403f00:	ff 33                	push   QWORD PTR [rbx]
  403f02:	48 8b 45 f8          	mov    rax,QWORD PTR [rbp-0x8]
  403f06:	48 8b 30             	mov    rsi,QWORD PTR [rax]
  403f09:	48 8b 7d f0          	mov    rdi,QWORD PTR [rbp-0x10]
  403f0d:	e8 1e 00 00 00       	call   403f30 <_D3std6format58__T11formatValueTS3std5stdio4File17LockingTextWriterTPvTaZ11formatValueFS3std5stdio4File17LockingTextWriterPvKS3std6format18__T10FormatSpecTaZ10FormatSpecZv>
  403f12:	48 83 c4 20          	add    rsp,0x20
  403f16:	68 25 3f 40 00       	push   0x403f25
  403f1b:	48 8d 7d 10          	lea    rdi,[rbp+0x10]
  403f1f:	e8 34 c3 00 00       	call   410258 <_D3std5stdio4File17LockingTextWriter6__dtorMFZv>
  403f24:	c3                   	ret    
  403f25:	41 5f                	pop    r15
  403f27:	41 5e                	pop    r14
  403f29:	41 5d                	pop    r13
  403f2b:	41 5c                	pop    r12
  403f2d:	5b                   	pop    rbx
  403f2e:	c9                   	leave  
  403f2f:	c3                   	ret    

0000000000403f30 <_D3std6format58__T11formatValueTS3std5stdio4File17LockingTextWriterTPvTaZ11formatValueFS3std5stdio4File17LockingTextWriterPvKS3std6format18__T10FormatSpecTaZ10FormatSpecZv>:
  403f30:	55                   	push   rbp
  403f31:	48 8b ec             	mov    rbp,rsp
  403f34:	48 81 ec 98 00 00 00 	sub    rsp,0x98
  403f3b:	53                   	push   rbx
  403f3c:	41 54                	push   r12
  403f3e:	41 55                	push   r13
  403f40:	41 56                	push   r14
  403f42:	41 57                	push   r15
  403f44:	48 89 7d f0          	mov    QWORD PTR [rbp-0x10],rdi
  403f48:	48 89 75 f8          	mov    QWORD PTR [rbp-0x8],rsi
  403f4c:	48 83 7d f8 00       	cmp    QWORD PTR [rbp-0x8],0x0
  403f51:	75 1e                	jne    403f71 <_D3std6format58__T11formatValueTS3std5stdio4File17LockingTextWriterTPvTaZ11formatValueFS3std5stdio4File17LockingTextWriterPvKS3std6format18__T10FormatSpecTaZ10FormatSpecZv+0x41>
  403f53:	48 8d 7d 10          	lea    rdi,[rbp+0x10]
  403f57:	ff 35 7b 23 02 00    	push   QWORD PTR [rip+0x2237b]        # 4262d8 <_TMP74+0x8>
  403f5d:	ff 35 6d 23 02 00    	push   QWORD PTR [rip+0x2236d]        # 4262d0 <_TMP74>
  403f63:	e8 30 01 00 00       	call   404098 <_D3std5range48__T3putTS3std5stdio4File17LockingTextWriterTAyaZ3putFKS3std5stdio4File17LockingTextWriterAyaZv>
  403f68:	48 83 c4 10          	add    rsp,0x10
  403f6c:	e9 ee 00 00 00       	jmp    40405f <_D3std6format58__T11formatValueTS3std5stdio4File17LockingTextWriterTPvTaZ11formatValueFS3std5stdio4File17LockingTextWriterPvKS3std6format18__T10FormatSpecTaZ10FormatSpecZv+0x12f>
  403f71:	48 8b 45 f8          	mov    rax,QWORD PTR [rbp-0x8]
  403f75:	48 89 85 68 ff ff ff 	mov    QWORD PTR [rbp-0x98],rax
  403f7c:	48 8b 4d f0          	mov    rcx,QWORD PTR [rbp-0x10]
  403f80:	80 79 08 73          	cmp    BYTE PTR [rcx+0x8],0x73
  403f84:	75 58                	jne    403fde <_D3std6format58__T11formatValueTS3std5stdio4File17LockingTextWriterTPvTaZ11formatValueFS3std5stdio4File17LockingTextWriterPvKS3std6format18__T10FormatSpecTaZ10FormatSpecZv+0xae>
  403f86:	48 8b 75 f0          	mov    rsi,QWORD PTR [rbp-0x10]
  403f8a:	48 8d bd 78 ff ff ff 	lea    rdi,[rbp-0x88]
  403f91:	b9 08 00 00 00       	mov    ecx,0x8
  403f96:	f3 48 a5             	rep movs QWORD PTR es:[rdi],QWORD PTR ds:[rsi]
  403f99:	c6 45 80 58          	mov    BYTE PTR [rbp-0x80],0x58
  403f9d:	48 83 ec 08          	sub    rsp,0x8
  403fa1:	48 83 ec 08          	sub    rsp,0x8
  403fa5:	48 8d 75 10          	lea    rsi,[rbp+0x10]
  403fa9:	48 8d 7d b8          	lea    rdi,[rbp-0x48]
  403fad:	e8 0e c3 00 00       	call   4102c0 <_D3std5stdio4File17LockingTextWriter8__cpctorMxFKxS3std5stdio4File17LockingTextWriterZv>
  403fb2:	48 83 c4 08          	add    rsp,0x8
  403fb6:	48 8d 5d b8          	lea    rbx,[rbp-0x48]
  403fba:	ff 73 10             	push   QWORD PTR [rbx+0x10]
  403fbd:	ff 73 08             	push   QWORD PTR [rbx+0x8]
  403fc0:	ff 33                	push   QWORD PTR [rbx]
  403fc2:	48 8b b5 68 ff ff ff 	mov    rsi,QWORD PTR [rbp-0x98]
  403fc9:	48 8d bd 78 ff ff ff 	lea    rdi,[rbp-0x88]
  403fd0:	e8 43 04 00 00       	call   404418 <_D3std6format57__T11formatValueTS3std5stdio4File17LockingTextWriterTmTaZ11formatValueFS3std5stdio4File17LockingTextWritermKS3std6format18__T10FormatSpecTaZ10FormatSpecZv>
  403fd5:	48 83 c4 20          	add    rsp,0x20
  403fd9:	e9 81 00 00 00       	jmp    40405f <_D3std6format58__T11formatValueTS3std5stdio4File17LockingTextWriterTPvTaZ11formatValueFS3std5stdio4File17LockingTextWriterPvKS3std6format18__T10FormatSpecTaZ10FormatSpecZv+0x12f>
  403fde:	48 8b 45 f0          	mov    rax,QWORD PTR [rbp-0x10]
  403fe2:	8a 48 08             	mov    cl,BYTE PTR [rax+0x8]
  403fe5:	80 f9 58             	cmp    cl,0x58
  403fe8:	74 09                	je     403ff3 <_D3std6format58__T11formatValueTS3std5stdio4File17LockingTextWriterTPvTaZ11formatValueFS3std5stdio4File17LockingTextWriterPvKS3std6format18__T10FormatSpecTaZ10FormatSpecZv+0xc3>
  403fea:	80 f9 78             	cmp    cl,0x78
  403fed:	74 04                	je     403ff3 <_D3std6format58__T11formatValueTS3std5stdio4File17LockingTextWriterTPvTaZ11formatValueFS3std5stdio4File17LockingTextWriterPvKS3std6format18__T10FormatSpecTaZ10FormatSpecZv+0xc3>
  403fef:	31 f6                	xor    esi,esi
  403ff1:	eb 05                	jmp    403ff8 <_D3std6format58__T11formatValueTS3std5stdio4File17LockingTextWriterTPvTaZ11formatValueFS3std5stdio4File17LockingTextWriterPvKS3std6format18__T10FormatSpecTaZ10FormatSpecZv+0xc8>
  403ff3:	be 01 00 00 00       	mov    esi,0x1
  403ff8:	48 ba 7c 40 40 00 00 	movabs rdx,0x40407c
  403fff:	00 00 00 
  404002:	48 31 db             	xor    rbx,rbx
  404005:	52                   	push   rdx
  404006:	53                   	push   rbx
  404007:	ff 35 1b 23 02 00    	push   QWORD PTR [rip+0x2231b]        # 426328 <_TMP75+0x8>
  40400d:	ff 35 0d 23 02 00    	push   QWORD PTR [rip+0x2230d]        # 426320 <_TMP75>
  404013:	48 bf bd 09 00 00 00 	movabs rdi,0x9bd
  40401a:	00 00 00 
  40401d:	e8 da 06 00 00       	call   4046fc <_D3std9exception44__T9enforceExTC3std6format15FormatExceptionZ16__T9enforceExTbZ9enforceExFNaNfbLAyaAyamZb>
  404022:	48 83 c4 20          	add    rsp,0x20
  404026:	48 83 ec 08          	sub    rsp,0x8
  40402a:	48 83 ec 08          	sub    rsp,0x8
  40402e:	48 8d 75 10          	lea    rsi,[rbp+0x10]
  404032:	48 8d 7d d8          	lea    rdi,[rbp-0x28]
  404036:	e8 85 c2 00 00       	call   4102c0 <_D3std5stdio4File17LockingTextWriter8__cpctorMxFKxS3std5stdio4File17LockingTextWriterZv>
  40403b:	48 83 c4 08          	add    rsp,0x8
  40403f:	48 8d 5d d8          	lea    rbx,[rbp-0x28]
  404043:	ff 73 10             	push   QWORD PTR [rbx+0x10]
  404046:	ff 73 08             	push   QWORD PTR [rbx+0x8]
  404049:	ff 33                	push   QWORD PTR [rbx]
  40404b:	48 8b b5 68 ff ff ff 	mov    rsi,QWORD PTR [rbp-0x98]
  404052:	48 8b 7d f0          	mov    rdi,QWORD PTR [rbp-0x10]
  404056:	e8 bd 03 00 00       	call   404418 <_D3std6format57__T11formatValueTS3std5stdio4File17LockingTextWriterTmTaZ11formatValueFS3std5stdio4File17LockingTextWritermKS3std6format18__T10FormatSpecTaZ10FormatSpecZv>
  40405b:	48 83 c4 20          	add    rsp,0x20
  40405f:	68 6e 40 40 00       	push   0x40406e
  404064:	48 8d 7d 10          	lea    rdi,[rbp+0x10]
  404068:	e8 eb c1 00 00       	call   410258 <_D3std5stdio4File17LockingTextWriter6__dtorMFZv>
  40406d:	c3                   	ret    
  40406e:	41 5f                	pop    r15
  404070:	41 5e                	pop    r14
  404072:	41 5d                	pop    r13
  404074:	41 5c                	pop    r12
  404076:	5b                   	pop    rbx
  404077:	c9                   	leave  
  404078:	c3                   	ret    
  404079:	90                   	nop
  40407a:	90                   	nop
  40407b:	90                   	nop

000000000040407c <_D3std6format58__T11formatValueTS3std5stdio4File17LockingTextWriterTPvTaZ11formatValueFS3std5stdio4File17LockingTextWriterPvKS3std6format18__T10FormatSpecTaZ10FormatSpecZv14__dgliteral944MFZAya>:
  40407c:	55                   	push   rbp
  40407d:	48 8b ec             	mov    rbp,rsp
  404080:	48 83 ec 08          	sub    rsp,0x8
  404084:	48 89 7d f8          	mov    QWORD PTR [rbp-0x8],rdi
  404088:	48 8b 15 d9 22 02 00 	mov    rdx,QWORD PTR [rip+0x222d9]        # 426368 <_TMP78+0x8>
  40408f:	48 8b 05 ca 22 02 00 	mov    rax,QWORD PTR [rip+0x222ca]        # 426360 <_TMP78>
  404096:	c9                   	leave  
  404097:	c3                   	ret    

0000000000404098 <_D3std5range48__T3putTS3std5stdio4File17LockingTextWriterTAyaZ3putFKS3std5stdio4File17LockingTextWriterAyaZv>:
  404098:	55                   	push   rbp
  404099:	48 8b ec             	mov    rbp,rsp
  40409c:	48 83 ec 10          	sub    rsp,0x10
  4040a0:	48 89 7d f8          	mov    QWORD PTR [rbp-0x8],rdi
  4040a4:	ff 75 18             	push   QWORD PTR [rbp+0x18]
  4040a7:	ff 75 10             	push   QWORD PTR [rbp+0x10]
  4040aa:	48 8b 7d f8          	mov    rdi,QWORD PTR [rbp-0x8]
  4040ae:	e8 31 01 00 00       	call   4041e4 <_D3std5stdio4File17LockingTextWriter12__T3putTAyaZ3putMFAyaZv>
  4040b3:	48 83 c4 10          	add    rsp,0x10
  4040b7:	c9                   	leave  
  4040b8:	c3                   	ret    
  4040b9:	90                   	nop
  4040ba:	90                   	nop
  4040bb:	90                   	nop

00000000004040bc <_D3std5array14__T5frontTAyaZ5frontFNdAyaZw>:
  4040bc:	55                   	push   rbp
  4040bd:	48 8b ec             	mov    rbp,rsp
  4040c0:	48 83 ec 10          	sub    rsp,0x10
  4040c4:	48 83 7d 10 00       	cmp    QWORD PTR [rbp+0x10],0x0
  4040c9:	75 22                	jne    4040ed <_D3std5array14__T5frontTAyaZ5frontFNdAyaZw+0x31>
  4040cb:	bf d1 01 00 00       	mov    edi,0x1d1
  4040d0:	ff 35 e2 22 02 00    	push   QWORD PTR [rip+0x222e2]        # 4263b8 <_TMP79+0x8>
  4040d6:	ff 35 d4 22 02 00    	push   QWORD PTR [rip+0x222d4]        # 4263b0 <_TMP79>
  4040dc:	ff 35 36 23 02 00    	push   QWORD PTR [rip+0x22336]        # 426418 <_TMP80+0x8>
  4040e2:	ff 35 28 23 02 00    	push   QWORD PTR [rip+0x22328]        # 426410 <_TMP80>
  4040e8:	e8 3f 6c 00 00       	call   40ad2c <_d_assert_msg>
  4040ed:	48 c7 45 f8 00 00 00 	mov    QWORD PTR [rbp-0x8],0x0
  4040f4:	00 
  4040f5:	ff 75 18             	push   QWORD PTR [rbp+0x18]
  4040f8:	ff 75 10             	push   QWORD PTR [rbp+0x10]
  4040fb:	48 8d 7d f8          	lea    rdi,[rbp-0x8]
  4040ff:	e8 08 00 00 00       	call   40410c <_D3std3utf15__T6decodeTAyaZ6decodeFNaNexAyaKmZw>
  404104:	48 83 c4 10          	add    rsp,0x10
  404108:	c9                   	leave  
  404109:	c3                   	ret    
  40410a:	90                   	nop
  40410b:	90                   	nop

000000000040410c <_D3std3utf15__T6decodeTAyaZ6decodeFNaNexAyaKmZw>:
  40410c:	55                   	push   rbp
  40410d:	48 8b ec             	mov    rbp,rsp
  404110:	48 83 ec 18          	sub    rsp,0x18
  404114:	53                   	push   rbx
  404115:	48 89 7d f8          	mov    QWORD PTR [rbp-0x8],rdi
  404119:	48 8b 45 f8          	mov    rax,QWORD PTR [rbp-0x8]
  40411d:	48 8b 08             	mov    rcx,QWORD PTR [rax]
  404120:	48 3b 4d 10          	cmp    rcx,QWORD PTR [rbp+0x10]
  404124:	72 22                	jb     404148 <_D3std3utf15__T6decodeTAyaZ6decodeFNaNexAyaKmZw+0x3c>
  404126:	bf 2e 02 00 00       	mov    edi,0x22e
  40412b:	ff 35 37 23 02 00    	push   QWORD PTR [rip+0x22337]        # 426468 <_TMP81+0x8>
  404131:	ff 35 29 23 02 00    	push   QWORD PTR [rip+0x22329]        # 426460 <_TMP81>
  404137:	ff 35 6b 23 02 00    	push   QWORD PTR [rip+0x2236b]        # 4264a8 <_TMP82+0x8>
  40413d:	ff 35 5d 23 02 00    	push   QWORD PTR [rip+0x2235d]        # 4264a0 <_TMP82>
  404143:	e8 e4 6b 00 00       	call   40ad2c <_d_assert_msg>
  404148:	48 8b 10             	mov    rdx,QWORD PTR [rax]
  40414b:	48 3b 55 10          	cmp    rdx,QWORD PTR [rbp+0x10]
  40414f:	72 0a                	jb     40415b <_D3std3utf15__T6decodeTAyaZ6decodeFNaNexAyaKmZw+0x4f>
  404151:	bf 36 02 00 00       	mov    edi,0x236
  404156:	e8 65 ce 00 00       	call   410fc0 <_D3std3utf7__arrayZ>
  40415b:	48 8b 55 18          	mov    rdx,QWORD PTR [rbp+0x18]
  40415f:	48 8b 45 10          	mov    rax,QWORD PTR [rbp+0x10]
  404163:	48 8b 4d f8          	mov    rcx,QWORD PTR [rbp-0x8]
  404167:	48 8b 19             	mov    rbx,QWORD PTR [rcx]
  40416a:	40 8a 34 1a          	mov    sil,BYTE PTR [rdx+rbx*1]
  40416e:	40 80 fe 80          	cmp    sil,0x80
  404172:	73 33                	jae    4041a7 <_D3std3utf15__T6decodeTAyaZ6decodeFNaNexAyaKmZw+0x9b>
  404174:	48 8b 7d f8          	mov    rdi,QWORD PTR [rbp-0x8]
  404178:	48 8b 07             	mov    rax,QWORD PTR [rdi]
  40417b:	48 ff 07             	inc    QWORD PTR [rdi]
  40417e:	48 89 45 f0          	mov    QWORD PTR [rbp-0x10],rax
  404182:	48 3b 45 10          	cmp    rax,QWORD PTR [rbp+0x10]
  404186:	72 0a                	jb     404192 <_D3std3utf15__T6decodeTAyaZ6decodeFNaNexAyaKmZw+0x86>
  404188:	bf 37 02 00 00       	mov    edi,0x237
  40418d:	e8 2e ce 00 00       	call   410fc0 <_D3std3utf7__arrayZ>
  404192:	48 8b 55 18          	mov    rdx,QWORD PTR [rbp+0x18]
  404196:	48 8b 45 10          	mov    rax,QWORD PTR [rbp+0x10]
  40419a:	48 8b 5d f0          	mov    rbx,QWORD PTR [rbp-0x10]
  40419e:	0f b6 0c 1a          	movzx  ecx,BYTE PTR [rdx+rbx*1]
  4041a2:	89 4d e8             	mov    DWORD PTR [rbp-0x18],ecx
  4041a5:	eb 21                	jmp    4041c8 <_D3std3utf15__T6decodeTAyaZ6decodeFNaNexAyaKmZw+0xbc>
  4041a7:	48 8b 75 f8          	mov    rsi,QWORD PTR [rbp-0x8]
  4041ab:	48 8b 16             	mov    rdx,QWORD PTR [rsi]
  4041ae:	48 03 55 18          	add    rdx,QWORD PTR [rbp+0x18]
  4041b2:	48 8b 75 10          	mov    rsi,QWORD PTR [rbp+0x10]
  4041b6:	48 8b 45 f8          	mov    rax,QWORD PTR [rbp-0x8]
  4041ba:	48 2b 30             	sub    rsi,QWORD PTR [rax]
  4041bd:	48 89 c7             	mov    rdi,rax
  4041c0:	e8 1f d1 00 00       	call   4112e4 <_D3std3utf10decodeImplFNaNePxamKmZw>
  4041c5:	89 45 e8             	mov    DWORD PTR [rbp-0x18],eax
  4041c8:	8b 7d e8             	mov    edi,DWORD PTR [rbp-0x18]
  4041cb:	e8 64 d0 00 00       	call   411234 <_D3std3utf12isValidDcharFNaNbNfwZb>
  4041d0:	84 c0                	test   al,al
  4041d2:	75 0a                	jne    4041de <_D3std3utf15__T6decodeTAyaZ6decodeFNaNexAyaKmZw+0xd2>
  4041d4:	bf 32 02 00 00       	mov    edi,0x232
  4041d9:	e8 fe cd 00 00       	call   410fdc <_D3std3utf8__assertFiZv>
  4041de:	8b 45 e8             	mov    eax,DWORD PTR [rbp-0x18]
  4041e1:	5b                   	pop    rbx
  4041e2:	c9                   	leave  
  4041e3:	c3                   	ret    

00000000004041e4 <_D3std5stdio4File17LockingTextWriter12__T3putTAyaZ3putMFAyaZv>:
  4041e4:	55                   	push   rbp
  4041e5:	48 8b ec             	mov    rbp,rsp
  4041e8:	48 83 ec 18          	sub    rsp,0x18
  4041ec:	53                   	push   rbx
  4041ed:	48 89 7d f8          	mov    QWORD PTR [rbp-0x8],rdi
  4041f1:	48 83 7d f8 00       	cmp    QWORD PTR [rbp-0x8],0x0
  4041f6:	75 22                	jne    40421a <_D3std5stdio4File17LockingTextWriter12__T3putTAyaZ3putMFAyaZv+0x36>
  4041f8:	bf ba 04 00 00       	mov    edi,0x4ba
  4041fd:	ff 35 f5 22 02 00    	push   QWORD PTR [rip+0x222f5]        # 4264f8 <_TMP84+0x8>
  404203:	ff 35 e7 22 02 00    	push   QWORD PTR [rip+0x222e7]        # 4264f0 <_TMP84>
  404209:	ff 35 09 23 02 00    	push   QWORD PTR [rip+0x22309]        # 426518 <_TMP85+0x8>
  40420f:	ff 35 fb 22 02 00    	push   QWORD PTR [rip+0x222fb]        # 426510 <_TMP85>
  404215:	e8 12 6b 00 00       	call   40ad2c <_d_assert_msg>
  40421a:	48 8b 45 f8          	mov    rax,QWORD PTR [rbp-0x8]
  40421e:	83 78 10 00          	cmp    DWORD PTR [rax+0x10],0x0
  404222:	7f 45                	jg     404269 <_D3std5stdio4File17LockingTextWriter12__T3putTAyaZ3putMFAyaZv+0x85>
  404224:	48 8b 4d f8          	mov    rcx,QWORD PTR [rbp-0x8]
  404228:	48 8b 09             	mov    rcx,QWORD PTR [rcx]
  40422b:	48 8b 55 10          	mov    rdx,QWORD PTR [rbp+0x10]
  40422f:	48 be 01 00 00 00 00 	movabs rsi,0x1
  404236:	00 00 00 
  404239:	48 8b 7d 18          	mov    rdi,QWORD PTR [rbp+0x18]
  40423d:	e8 c6 da ff ff       	call   401d08 <fwrite@plt>
  404242:	48 89 45 f0          	mov    QWORD PTR [rbp-0x10],rax
  404246:	48 3b 45 10          	cmp    rax,QWORD PTR [rbp+0x10]
  40424a:	74 3c                	je     404288 <_D3std5stdio4File17LockingTextWriter12__T3putTAyaZ3putMFAyaZv+0xa4>
  40424c:	31 ff                	xor    edi,edi
  40424e:	48 8d 45 f8          	lea    rax,[rbp-0x8]
  404252:	48 b9 8c 42 40 00 00 	movabs rcx,0x40428c
  404259:	00 00 00 
  40425c:	51                   	push   rcx
  40425d:	50                   	push   rax
  40425e:	e8 69 00 00 00       	call   4042cc <_D3std9exception138__T12errnoEnforceTiVAyaa52_2f7573722f696e636c7564652f7838365f36342d6c696e75782d676e752f646d642f70686f626f732f7374642f737464696f2e64Vi1223Z12errnoEnforceFNaNfiLAyaZi>
  404263:	48 83 c4 10          	add    rsp,0x10
  404267:	eb 1f                	jmp    404288 <_D3std5stdio4File17LockingTextWriter12__T3putTAyaZ3putMFAyaZv+0xa4>
  404269:	48 8d 5d f8          	lea    rbx,[rbp-0x8]
  40426d:	48 ba a0 42 40 00 00 	movabs rdx,0x4042a0
  404274:	00 00 00 
  404277:	52                   	push   rdx
  404278:	53                   	push   rbx
  404279:	ff 75 18             	push   QWORD PTR [rbp+0x18]
  40427c:	ff 75 10             	push   QWORD PTR [rbp+0x10]
  40427f:	e8 2c 62 00 00       	call   40a4b0 <_aApplycd1>
  404284:	48 83 c4 20          	add    rsp,0x20
  404288:	5b                   	pop    rbx
  404289:	c9                   	leave  
  40428a:	c3                   	ret    
  40428b:	90                   	nop

000000000040428c <_D3std5stdio4File17LockingTextWriter12__T3putTAyaZ3putMFAyaZv14__dgliteral915MFZAya>:
  40428c:	55                   	push   rbp
  40428d:	48 8b ec             	mov    rbp,rsp
  404290:	48 83 ec 08          	sub    rsp,0x8
  404294:	48 89 7d f8          	mov    QWORD PTR [rbp-0x8],rdi
  404298:	31 c0                	xor    eax,eax
  40429a:	31 d2                	xor    edx,edx
  40429c:	c9                   	leave  
  40429d:	c3                   	ret    
  40429e:	90                   	nop
  40429f:	90                   	nop

00000000004042a0 <_D3std5stdio4File17LockingTextWriter12__T3putTAyaZ3putMFAyaZv16__foreachbody916MFKwZi>:
  4042a0:	55                   	push   rbp
  4042a1:	48 8b ec             	mov    rbp,rsp
  4042a4:	48 83 ec 20          	sub    rsp,0x20
  4042a8:	48 89 7d f0          	mov    QWORD PTR [rbp-0x10],rdi
  4042ac:	48 89 75 f8          	mov    QWORD PTR [rbp-0x8],rsi
  4042b0:	48 8b 45 f8          	mov    rax,QWORD PTR [rbp-0x8]
  4042b4:	8b 08                	mov    ecx,DWORD PTR [rax]
  4042b6:	89 4d e8             	mov    DWORD PTR [rbp-0x18],ecx
  4042b9:	48 89 ce             	mov    rsi,rcx
  4042bc:	48 8b 55 f0          	mov    rdx,QWORD PTR [rbp-0x10]
  4042c0:	48 8b 3a             	mov    rdi,QWORD PTR [rdx]
  4042c3:	e8 6c 00 00 00       	call   404334 <_D3std5stdio4File17LockingTextWriter10__T3putTwZ3putMFwZv>
  4042c8:	31 c0                	xor    eax,eax
  4042ca:	c9                   	leave  
  4042cb:	c3                   	ret    

00000000004042cc <_D3std9exception138__T12errnoEnforceTiVAyaa52_2f7573722f696e636c7564652f7838365f36342d6c696e75782d676e752f646d642f70686f626f732f7374642f737464696f2e64Vi1223Z12errnoEnforceFNaNfiLAyaZi>:
  4042cc:	55                   	push   rbp
  4042cd:	48 8b ec             	mov    rbp,rsp
  4042d0:	48 83 ec 18          	sub    rsp,0x18
  4042d4:	53                   	push   rbx
  4042d5:	89 7d f8             	mov    DWORD PTR [rbp-0x8],edi
  4042d8:	83 7d f8 00          	cmp    DWORD PTR [rbp-0x8],0x0
  4042dc:	75 4f                	jne    40432d <_D3std9exception138__T12errnoEnforceTiVAyaa52_2f7573722f696e636c7564652f7838365f36342d6c696e75782d676e752f646d642f70686f626f732f7374642f737464696f2e64Vi1223Z12errnoEnforceFNaNfiLAyaZi+0x61>
  4042de:	48 bf 50 13 63 00 00 	movabs rdi,0x631350
  4042e5:	00 00 00 
  4042e8:	e8 9f 72 00 00       	call   40b58c <_d_newclass>
  4042ed:	48 89 45 f0          	mov    QWORD PTR [rbp-0x10],rax
  4042f1:	48 8b 7d 10          	mov    rdi,QWORD PTR [rbp+0x10]
  4042f5:	48 8b 55 18          	mov    rdx,QWORD PTR [rbp+0x18]
  4042f9:	48 8b 5d 10          	mov    rbx,QWORD PTR [rbp+0x10]
  4042fd:	48 ff d2             	rex.W call rdx
  404300:	52                   	push   rdx
  404301:	50                   	push   rax
  404302:	ff 35 60 22 02 00    	push   QWORD PTR [rip+0x22260]        # 426568 <_TMP87+0x8>
  404308:	ff 35 52 22 02 00    	push   QWORD PTR [rip+0x22252]        # 426560 <_TMP87>
  40430e:	48 be c7 04 00 00 00 	movabs rsi,0x4c7
  404315:	00 00 00 
  404318:	48 8b 7d f0          	mov    rdi,QWORD PTR [rbp-0x10]
  40431c:	e8 cb ae 00 00       	call   40f1ec <_D3std9exception14ErrnoException6__ctorMFAyaAyamZC3std9exception14ErrnoException>
  404321:	48 83 c4 20          	add    rsp,0x20
  404325:	48 89 c7             	mov    rdi,rax
  404328:	e8 f3 64 00 00       	call   40a820 <_d_throwc>
  40432d:	8b 45 f8             	mov    eax,DWORD PTR [rbp-0x8]
  404330:	5b                   	pop    rbx
  404331:	c9                   	leave  
  404332:	c3                   	ret    
  404333:	90                   	nop

0000000000404334 <_D3std5stdio4File17LockingTextWriter10__T3putTwZ3putMFwZv>:
  404334:	55                   	push   rbp
  404335:	48 8b ec             	mov    rbp,rsp
  404338:	48 83 ec 48          	sub    rsp,0x48
  40433c:	53                   	push   rbx
  40433d:	48 89 7d f0          	mov    QWORD PTR [rbp-0x10],rdi
  404341:	89 75 f8             	mov    DWORD PTR [rbp-0x8],esi
  404344:	48 83 7d f0 00       	cmp    QWORD PTR [rbp-0x10],0x0
  404349:	75 22                	jne    40436d <_D3std5stdio4File17LockingTextWriter10__T3putTwZ3putMFwZv+0x39>
  40434b:	bf d6 04 00 00       	mov    edi,0x4d6
  404350:	ff 35 a2 21 02 00    	push   QWORD PTR [rip+0x221a2]        # 4264f8 <_TMP84+0x8>
  404356:	ff 35 94 21 02 00    	push   QWORD PTR [rip+0x22194]        # 4264f0 <_TMP84>
  40435c:	ff 35 b6 21 02 00    	push   QWORD PTR [rip+0x221b6]        # 426518 <_TMP85+0x8>
  404362:	ff 35 a8 21 02 00    	push   QWORD PTR [rip+0x221a8]        # 426510 <_TMP85>
  404368:	e8 bf 69 00 00       	call   40ad2c <_d_assert_msg>
  40436d:	48 8b 45 f0          	mov    rax,QWORD PTR [rbp-0x10]
  404371:	83 78 10 00          	cmp    DWORD PTR [rax+0x10],0x0
  404375:	0f 8f 87 00 00 00    	jg     404402 <_D3std5stdio4File17LockingTextWriter10__T3putTwZ3putMFwZv+0xce>
  40437b:	83 7d f8 7f          	cmp    DWORD PTR [rbp-0x8],0x7f
  40437f:	77 15                	ja     404396 <_D3std5stdio4File17LockingTextWriter10__T3putTwZ3putMFwZv+0x62>
  404381:	48 8b 4d f0          	mov    rcx,QWORD PTR [rbp-0x10]
  404385:	48 8b 71 08          	mov    rsi,QWORD PTR [rcx+0x8]
  404389:	8b 7d f8             	mov    edi,DWORD PTR [rbp-0x8]
  40438c:	e8 e7 d5 ff ff       	call   401978 <fputc_unlocked@plt>
  404391:	e9 7c 00 00 00       	jmp    404412 <_D3std5stdio4File17LockingTextWriter10__T3putTwZ3putMFwZv+0xde>
  404396:	48 8d 75 c0          	lea    rsi,[rbp-0x40]
  40439a:	8b 7d f8             	mov    edi,DWORD PTR [rbp-0x8]
  40439d:	e8 8a d3 00 00       	call   41172c <_D3std3utf6toUTF8FNaNbNfJG4awZAa>
  4043a2:	48 89 45 d0          	mov    QWORD PTR [rbp-0x30],rax
  4043a6:	48 89 55 d8          	mov    QWORD PTR [rbp-0x28],rdx
  4043aa:	48 c7 45 e0 00 00 00 	mov    QWORD PTR [rbp-0x20],0x0
  4043b1:	00 
  4043b2:	48 8b 45 d0          	mov    rax,QWORD PTR [rbp-0x30]
  4043b6:	48 89 45 e8          	mov    QWORD PTR [rbp-0x18],rax
  4043ba:	48 8b 4d e0          	mov    rcx,QWORD PTR [rbp-0x20]
  4043be:	48 3b 4d e8          	cmp    rcx,QWORD PTR [rbp-0x18]
  4043c2:	73 4e                	jae    404412 <_D3std5stdio4File17LockingTextWriter10__T3putTwZ3putMFwZv+0xde>
  4043c4:	48 8b 55 f0          	mov    rdx,QWORD PTR [rbp-0x10]
  4043c8:	48 8b 72 08          	mov    rsi,QWORD PTR [rdx+0x8]
  4043cc:	56                   	push   rsi
  4043cd:	48 83 ec 08          	sub    rsp,0x8
  4043d1:	48 8b 5d e0          	mov    rbx,QWORD PTR [rbp-0x20]
  4043d5:	48 3b 5d d0          	cmp    rbx,QWORD PTR [rbp-0x30]
  4043d9:	72 0a                	jb     4043e5 <_D3std5stdio4File17LockingTextWriter10__T3putTwZ3putMFwZv+0xb1>
  4043db:	bf 00 05 00 00       	mov    edi,0x500
  4043e0:	e8 03 b0 00 00       	call   40f3e8 <_D3std5stdio7__arrayZ>
  4043e5:	48 8b 55 d8          	mov    rdx,QWORD PTR [rbp-0x28]
  4043e9:	48 8b 45 d0          	mov    rax,QWORD PTR [rbp-0x30]
  4043ed:	40 0f b6 3c 1a       	rex movzx edi,BYTE PTR [rdx+rbx*1]
  4043f2:	48 83 c4 08          	add    rsp,0x8
  4043f6:	5e                   	pop    rsi
  4043f7:	e8 7c d5 ff ff       	call   401978 <fputc_unlocked@plt>
  4043fc:	48 ff 45 e0          	inc    QWORD PTR [rbp-0x20]
  404400:	eb b8                	jmp    4043ba <_D3std5stdio4File17LockingTextWriter10__T3putTwZ3putMFwZv+0x86>
  404402:	48 8b 4d f0          	mov    rcx,QWORD PTR [rbp-0x10]
  404406:	48 8b 71 08          	mov    rsi,QWORD PTR [rcx+0x8]
  40440a:	8b 7d f8             	mov    edi,DWORD PTR [rbp-0x8]
  40440d:	e8 c6 d7 ff ff       	call   401bd8 <fputwc_unlocked@plt>
  404412:	5b                   	pop    rbx
  404413:	c9                   	leave  
  404414:	c3                   	ret    
  404415:	90                   	nop
  404416:	90                   	nop
  404417:	90                   	nop

0000000000404418 <_D3std6format57__T11formatValueTS3std5stdio4File17LockingTextWriterTmTaZ11formatValueFS3std5stdio4File17LockingTextWritermKS3std6format18__T10FormatSpecTaZ10FormatSpecZv>:
  404418:	55                   	push   rbp
  404419:	48 8b ec             	mov    rbp,rsp
  40441c:	48 83 ec 58          	sub    rsp,0x58
  404420:	53                   	push   rbx
  404421:	41 54                	push   r12
  404423:	41 55                	push   r13
  404425:	41 56                	push   r14
  404427:	41 57                	push   r15
  404429:	48 89 7d f0          	mov    QWORD PTR [rbp-0x10],rdi
  40442d:	48 89 75 f8          	mov    QWORD PTR [rbp-0x8],rsi
  404431:	48 8b 45 f8          	mov    rax,QWORD PTR [rbp-0x8]
  404435:	48 89 45 a8          	mov    QWORD PTR [rbp-0x58],rax
  404439:	48 8b 4d f0          	mov    rcx,QWORD PTR [rbp-0x10]
  40443d:	80 79 08 72          	cmp    BYTE PTR [rcx+0x8],0x72
  404441:	0f 85 97 00 00 00    	jne    4044de <_D3std6format57__T11formatValueTS3std5stdio4File17LockingTextWriterTmTaZ11formatValueFS3std5stdio4File17LockingTextWritermKS3std6format18__T10FormatSpecTaZ10FormatSpecZv+0xc6>
  404447:	48 8d 55 a8          	lea    rdx,[rbp-0x58]
  40444b:	48 89 55 b0          	mov    QWORD PTR [rbp-0x50],rdx
  40444f:	48 8b 7d f0          	mov    rdi,QWORD PTR [rbp-0x10]
  404453:	e8 fc e2 ff ff       	call   402754 <_D3std6format18__T10FormatSpecTaZ10FormatSpec6flPlusMxFNdZb>
  404458:	84 c0                	test   al,al
  40445a:	74 35                	je     404491 <_D3std6format57__T11formatValueTS3std5stdio4File17LockingTextWriterTmTaZ11formatValueFS3std5stdio4File17LockingTextWritermKS3std6format18__T10FormatSpecTaZ10FormatSpecZv+0x79>
  40445c:	48 c7 45 b8 00 00 00 	mov    QWORD PTR [rbp-0x48],0x0
  404463:	00 
  404464:	48 c7 45 c0 08 00 00 	mov    QWORD PTR [rbp-0x40],0x8
  40446b:	00 
  40446c:	48 8b 5d c0          	mov    rbx,QWORD PTR [rbp-0x40]
  404470:	48 ff 4d c0          	dec    QWORD PTR [rbp-0x40]
  404474:	48 3b 5d b8          	cmp    rbx,QWORD PTR [rbp-0x48]
  404478:	76 4c                	jbe    4044c6 <_D3std6format57__T11formatValueTS3std5stdio4File17LockingTextWriterTmTaZ11formatValueFS3std5stdio4File17LockingTextWritermKS3std6format18__T10FormatSpecTaZ10FormatSpecZv+0xae>
  40447a:	48 8d 75 10          	lea    rsi,[rbp+0x10]
  40447e:	48 8b 45 b0          	mov    rax,QWORD PTR [rbp-0x50]
  404482:	48 8b 4d c0          	mov    rcx,QWORD PTR [rbp-0x40]
  404486:	40 8a 3c 08          	mov    dil,BYTE PTR [rax+rcx*1]
  40448a:	e8 a9 00 00 00       	call   404538 <_D3std5range47__T3putTS3std5stdio4File17LockingTextWriterTxaZ3putFKS3std5stdio4File17LockingTextWriterxaZv>
  40448f:	eb db                	jmp    40446c <_D3std6format57__T11formatValueTS3std5stdio4File17LockingTextWriterTmTaZ11formatValueFS3std5stdio4File17LockingTextWritermKS3std6format18__T10FormatSpecTaZ10FormatSpecZv+0x54>
  404491:	48 c7 45 c8 00 00 00 	mov    QWORD PTR [rbp-0x38],0x0
  404498:	00 
  404499:	48 c7 45 d0 08 00 00 	mov    QWORD PTR [rbp-0x30],0x8
  4044a0:	00 
  4044a1:	48 8b 55 c8          	mov    rdx,QWORD PTR [rbp-0x38]
  4044a5:	48 3b 55 d0          	cmp    rdx,QWORD PTR [rbp-0x30]
  4044a9:	73 1b                	jae    4044c6 <_D3std6format57__T11formatValueTS3std5stdio4File17LockingTextWriterTmTaZ11formatValueFS3std5stdio4File17LockingTextWritermKS3std6format18__T10FormatSpecTaZ10FormatSpecZv+0xae>
  4044ab:	48 8d 75 10          	lea    rsi,[rbp+0x10]
  4044af:	48 8b 45 b0          	mov    rax,QWORD PTR [rbp-0x50]
  4044b3:	48 8b 4d c8          	mov    rcx,QWORD PTR [rbp-0x38]
  4044b7:	40 8a 3c 08          	mov    dil,BYTE PTR [rax+rcx*1]
  4044bb:	e8 78 00 00 00       	call   404538 <_D3std5range47__T3putTS3std5stdio4File17LockingTextWriterTxaZ3putFKS3std5stdio4File17LockingTextWriterxaZv>
  4044c0:	48 ff 45 c8          	inc    QWORD PTR [rbp-0x38]
  4044c4:	eb db                	jmp    4044a1 <_D3std6format57__T11formatValueTS3std5stdio4File17LockingTextWriterTmTaZ11formatValueFS3std5stdio4File17LockingTextWritermKS3std6format18__T10FormatSpecTaZ10FormatSpecZv+0x89>
  4044c6:	48 83 ec 08          	sub    rsp,0x8
  4044ca:	e8 54 00 00 00       	call   404523 <_D3std6format57__T11formatValueTS3std5stdio4File17LockingTextWriterTmTaZ11formatValueFS3std5stdio4File17LockingTextWritermKS3std6format18__T10FormatSpecTaZ10FormatSpecZv+0x10b>
  4044cf:	48 83 c4 08          	add    rsp,0x8
  4044d3:	41 5f                	pop    r15
  4044d5:	41 5e                	pop    r14
  4044d7:	41 5d                	pop    r13
  4044d9:	41 5c                	pop    r12
  4044db:	5b                   	pop    rbx
  4044dc:	c9                   	leave  
  4044dd:	c3                   	ret    
  4044de:	48 83 ec 08          	sub    rsp,0x8
  4044e2:	48 83 ec 08          	sub    rsp,0x8
  4044e6:	48 8d 75 10          	lea    rsi,[rbp+0x10]
  4044ea:	48 8d 7d d8          	lea    rdi,[rbp-0x28]
  4044ee:	e8 cd bd 00 00       	call   4102c0 <_D3std5stdio4File17LockingTextWriter8__cpctorMxFKxS3std5stdio4File17LockingTextWriterZv>
  4044f3:	48 83 c4 08          	add    rsp,0x8
  4044f7:	48 8d 5d d8          	lea    rbx,[rbp-0x28]
  4044fb:	ff 73 10             	push   QWORD PTR [rbx+0x10]
  4044fe:	ff 73 08             	push   QWORD PTR [rbx+0x8]
  404501:	ff 33                	push   QWORD PTR [rbx]
  404503:	48 8b 55 a8          	mov    rdx,QWORD PTR [rbp-0x58]
  404507:	48 8b 75 f0          	mov    rsi,QWORD PTR [rbp-0x10]
  40450b:	48 bf ff ff ff ff ff 	movabs rdi,0xffffffffffffffff
  404512:	ff ff ff 
  404515:	e8 aa 00 00 00       	call   4045c4 <_D3std6format60__T14formatIntegralTS3std5stdio4File17LockingTextWriterTmTaZ14formatIntegralFS3std5stdio4File17LockingTextWriterxmKS3std6format18__T10FormatSpecTaZ10FormatSpecmZv>
  40451a:	48 83 c4 20          	add    rsp,0x20
  40451e:	68 2d 45 40 00       	push   0x40452d
  404523:	48 8d 7d 10          	lea    rdi,[rbp+0x10]
  404527:	e8 2c bd 00 00       	call   410258 <_D3std5stdio4File17LockingTextWriter6__dtorMFZv>
  40452c:	c3                   	ret    
  40452d:	41 5f                	pop    r15
  40452f:	41 5e                	pop    r14
  404531:	41 5d                	pop    r13
  404533:	41 5c                	pop    r12
  404535:	5b                   	pop    rbx
  404536:	c9                   	leave  
  404537:	c3                   	ret    

0000000000404538 <_D3std5range47__T3putTS3std5stdio4File17LockingTextWriterTxaZ3putFKS3std5stdio4File17LockingTextWriterxaZv>:
  404538:	55                   	push   rbp
  404539:	48 8b ec             	mov    rbp,rsp
  40453c:	48 83 ec 10          	sub    rsp,0x10
  404540:	89 7d f0             	mov    DWORD PTR [rbp-0x10],edi
  404543:	48 89 75 f8          	mov    QWORD PTR [rbp-0x8],rsi
  404547:	40 8a 75 f0          	mov    sil,BYTE PTR [rbp-0x10]
  40454b:	48 8b 7d f8          	mov    rdi,QWORD PTR [rbp-0x8]
  40454f:	e8 04 00 00 00       	call   404558 <_D3std5stdio4File17LockingTextWriter11__T3putTxaZ3putMFxaZv>
  404554:	c9                   	leave  
  404555:	c3                   	ret    
  404556:	90                   	nop
  404557:	90                   	nop

0000000000404558 <_D3std5stdio4File17LockingTextWriter11__T3putTxaZ3putMFxaZv>:
  404558:	55                   	push   rbp
  404559:	48 8b ec             	mov    rbp,rsp
  40455c:	48 83 ec 10          	sub    rsp,0x10
  404560:	48 89 7d f0          	mov    QWORD PTR [rbp-0x10],rdi
  404564:	89 75 f8             	mov    DWORD PTR [rbp-0x8],esi
  404567:	48 83 7d f0 00       	cmp    QWORD PTR [rbp-0x10],0x0
  40456c:	75 22                	jne    404590 <_D3std5stdio4File17LockingTextWriter11__T3putTxaZ3putMFxaZv+0x38>
  40456e:	bf d6 04 00 00       	mov    edi,0x4d6
  404573:	ff 35 7f 1f 02 00    	push   QWORD PTR [rip+0x21f7f]        # 4264f8 <_TMP84+0x8>
  404579:	ff 35 71 1f 02 00    	push   QWORD PTR [rip+0x21f71]        # 4264f0 <_TMP84>
  40457f:	ff 35 93 1f 02 00    	push   QWORD PTR [rip+0x21f93]        # 426518 <_TMP85+0x8>
  404585:	ff 35 85 1f 02 00    	push   QWORD PTR [rip+0x21f85]        # 426510 <_TMP85>
  40458b:	e8 9c 67 00 00       	call   40ad2c <_d_assert_msg>
  404590:	48 8b 45 f0          	mov    rax,QWORD PTR [rbp-0x10]
  404594:	83 78 10 00          	cmp    DWORD PTR [rax+0x10],0x0
  404598:	7f 14                	jg     4045ae <_D3std5stdio4File17LockingTextWriter11__T3putTxaZ3putMFxaZv+0x56>
  40459a:	48 8b 4d f0          	mov    rcx,QWORD PTR [rbp-0x10]
  40459e:	48 8b 71 08          	mov    rsi,QWORD PTR [rcx+0x8]
  4045a2:	40 0f b6 7d f8       	rex movzx edi,BYTE PTR [rbp-0x8]
  4045a7:	e8 cc d3 ff ff       	call   401978 <fputc_unlocked@plt>
  4045ac:	eb 12                	jmp    4045c0 <_D3std5stdio4File17LockingTextWriter11__T3putTxaZ3putMFxaZv+0x68>
  4045ae:	48 8b 55 f0          	mov    rdx,QWORD PTR [rbp-0x10]
  4045b2:	48 8b 72 08          	mov    rsi,QWORD PTR [rdx+0x8]
  4045b6:	40 0f b6 7d f8       	rex movzx edi,BYTE PTR [rbp-0x8]
  4045bb:	e8 18 d6 ff ff       	call   401bd8 <fputwc_unlocked@plt>
  4045c0:	c9                   	leave  
  4045c1:	c3                   	ret    
  4045c2:	90                   	nop
  4045c3:	90                   	nop

00000000004045c4 <_D3std6format60__T14formatIntegralTS3std5stdio4File17LockingTextWriterTmTaZ14formatIntegralFS3std5stdio4File17LockingTextWriterxmKS3std6format18__T10FormatSpecTaZ10FormatSpecmZv>:
  4045c4:	55                   	push   rbp
  4045c5:	48 8b ec             	mov    rbp,rsp
  4045c8:	48 81 ec 88 00 00 00 	sub    rsp,0x88
  4045cf:	53                   	push   rbx
  4045d0:	41 54                	push   r12
  4045d2:	41 55                	push   r13
  4045d4:	41 56                	push   r14
  4045d6:	41 57                	push   r15
  4045d8:	48 89 7d e8          	mov    QWORD PTR [rbp-0x18],rdi
  4045dc:	48 89 75 f0          	mov    QWORD PTR [rbp-0x10],rsi
  4045e0:	48 89 55 f8          	mov    QWORD PTR [rbp-0x8],rdx
  4045e4:	48 8b 75 f0          	mov    rsi,QWORD PTR [rbp-0x10]
  4045e8:	48 8d 7d 80          	lea    rdi,[rbp-0x80]
  4045ec:	b9 08 00 00 00       	mov    ecx,0x8
  4045f1:	f3 48 a5             	rep movs QWORD PTR es:[rdi],QWORD PTR ds:[rsi]
  4045f4:	48 8b 45 f8          	mov    rax,QWORD PTR [rbp-0x8]
  4045f8:	48 89 45 c0          	mov    QWORD PTR [rbp-0x40],rax
  4045fc:	8a 4d 88             	mov    cl,BYTE PTR [rbp-0x78]
  4045ff:	80 f9 78             	cmp    cl,0x78
  404602:	74 05                	je     404609 <_D3std6format60__T14formatIntegralTS3std5stdio4File17LockingTextWriterTmTaZ14formatIntegralFS3std5stdio4File17LockingTextWriterxmKS3std6format18__T10FormatSpecTaZ10FormatSpecmZv+0x45>
  404604:	80 f9 58             	cmp    cl,0x58
  404607:	75 07                	jne    404610 <_D3std6format60__T14formatIntegralTS3std5stdio4File17LockingTextWriterTmTaZ14formatIntegralFS3std5stdio4File17LockingTextWriterxmKS3std6format18__T10FormatSpecTaZ10FormatSpecmZv+0x4c>
  404609:	ba 10 00 00 00       	mov    edx,0x10
  40460e:	eb 26                	jmp    404636 <_D3std6format60__T14formatIntegralTS3std5stdio4File17LockingTextWriterTmTaZ14formatIntegralFS3std5stdio4File17LockingTextWriterxmKS3std6format18__T10FormatSpecTaZ10FormatSpecmZv+0x72>
  404610:	80 f9 6f             	cmp    cl,0x6f
  404613:	ba 08 00 00 00       	mov    edx,0x8
  404618:	74 1c                	je     404636 <_D3std6format60__T14formatIntegralTS3std5stdio4File17LockingTextWriterTmTaZ14formatIntegralFS3std5stdio4File17LockingTextWriterxmKS3std6format18__T10FormatSpecTaZ10FormatSpecmZv+0x72>
  40461a:	80 f9 62             	cmp    cl,0x62
  40461d:	b2 02                	mov    dl,0x2
  40461f:	74 15                	je     404636 <_D3std6format60__T14formatIntegralTS3std5stdio4File17LockingTextWriterTmTaZ14formatIntegralFS3std5stdio4File17LockingTextWriterxmKS3std6format18__T10FormatSpecTaZ10FormatSpecmZv+0x72>
  404621:	80 f9 73             	cmp    cl,0x73
  404624:	74 0a                	je     404630 <_D3std6format60__T14formatIntegralTS3std5stdio4File17LockingTextWriterTmTaZ14formatIntegralFS3std5stdio4File17LockingTextWriterxmKS3std6format18__T10FormatSpecTaZ10FormatSpecmZv+0x6c>
  404626:	80 f9 64             	cmp    cl,0x64
  404629:	74 05                	je     404630 <_D3std6format60__T14formatIntegralTS3std5stdio4File17LockingTextWriterTmTaZ14formatIntegralFS3std5stdio4File17LockingTextWriterxmKS3std6format18__T10FormatSpecTaZ10FormatSpecmZv+0x6c>
  40462b:	80 f9 75             	cmp    cl,0x75
  40462e:	75 04                	jne    404634 <_D3std6format60__T14formatIntegralTS3std5stdio4File17LockingTextWriterTmTaZ14formatIntegralFS3std5stdio4File17LockingTextWriterxmKS3std6format18__T10FormatSpecTaZ10FormatSpecmZv+0x70>
  404630:	b2 0a                	mov    dl,0xa
  404632:	eb 02                	jmp    404636 <_D3std6format60__T14formatIntegralTS3std5stdio4File17LockingTextWriterTmTaZ14formatIntegralFS3std5stdio4File17LockingTextWriterxmKS3std6format18__T10FormatSpecTaZ10FormatSpecmZv+0x72>
  404634:	31 d2                	xor    edx,edx
  404636:	89 55 c8             	mov    DWORD PTR [rbp-0x38],edx
  404639:	83 7d c8 00          	cmp    DWORD PTR [rbp-0x38],0x0
  40463d:	40 0f 95 c6          	setne  sil
  404641:	48 b9 e0 46 40 00 00 	movabs rcx,0x4046e0
  404648:	00 00 00 
  40464b:	48 31 c0             	xor    rax,rax
  40464e:	51                   	push   rcx
  40464f:	50                   	push   rax
  404650:	ff 35 d2 1c 02 00    	push   QWORD PTR [rip+0x21cd2]        # 426328 <_TMP75+0x8>
  404656:	ff 35 c4 1c 02 00    	push   QWORD PTR [rip+0x21cc4]        # 426320 <_TMP75>
  40465c:	48 bf 9a 04 00 00 00 	movabs rdi,0x49a
  404663:	00 00 00 
  404666:	e8 91 00 00 00       	call   4046fc <_D3std9exception44__T9enforceExTC3std6format15FormatExceptionZ16__T9enforceExTbZ9enforceExFNaNfbLAyaAyamZb>
  40466b:	48 83 c4 20          	add    rsp,0x20
  40466f:	31 d2                	xor    edx,edx
  404671:	88 55 cc             	mov    BYTE PTR [rbp-0x34],dl
  404674:	84 d2                	test   dl,dl
  404676:	74 0b                	je     404683 <_D3std6format60__T14formatIntegralTS3std5stdio4File17LockingTextWriterTmTaZ14formatIntegralFS3std5stdio4File17LockingTextWriterxmKS3std6format18__T10FormatSpecTaZ10FormatSpecmZv+0xbf>
  404678:	48 8b 5d c0          	mov    rbx,QWORD PTR [rbp-0x40]
  40467c:	48 f7 db             	neg    rbx
  40467f:	48 89 5d c0          	mov    QWORD PTR [rbp-0x40],rbx
  404683:	48 83 ec 08          	sub    rsp,0x8
  404687:	48 83 ec 08          	sub    rsp,0x8
  40468b:	48 8d 75 10          	lea    rsi,[rbp+0x10]
  40468f:	48 8d 7d d0          	lea    rdi,[rbp-0x30]
  404693:	e8 28 bc 00 00       	call   4102c0 <_D3std5stdio4File17LockingTextWriter8__cpctorMxFKxS3std5stdio4File17LockingTextWriterZv>
  404698:	48 83 c4 08          	add    rsp,0x8
  40469c:	48 8d 5d d0          	lea    rbx,[rbp-0x30]
  4046a0:	ff 73 10             	push   QWORD PTR [rbx+0x10]
  4046a3:	ff 73 08             	push   QWORD PTR [rbx+0x8]
  4046a6:	ff 33                	push   QWORD PTR [rbx]
  4046a8:	48 8b 4d c0          	mov    rcx,QWORD PTR [rbp-0x40]
  4046ac:	48 23 4d e8          	and    rcx,QWORD PTR [rbp-0x18]
  4046b0:	48 8d 55 80          	lea    rdx,[rbp-0x80]
  4046b4:	8b 75 c8             	mov    esi,DWORD PTR [rbp-0x38]
  4046b7:	40 8a 7d cc          	mov    dil,BYTE PTR [rbp-0x34]
  4046bb:	e8 a0 00 00 00       	call   404760 <_D3std6format58__T14formatUnsignedTS3std5stdio4File17LockingTextWriterTaZ14formatUnsignedFS3std5stdio4File17LockingTextWritermKS3std6format18__T10FormatSpecTaZ10FormatSpeckbZv>
  4046c0:	48 83 c4 20          	add    rsp,0x20
  4046c4:	68 d3 46 40 00       	push   0x4046d3
  4046c9:	48 8d 7d 10          	lea    rdi,[rbp+0x10]
  4046cd:	e8 86 bb 00 00       	call   410258 <_D3std5stdio4File17LockingTextWriter6__dtorMFZv>
  4046d2:	c3                   	ret    
  4046d3:	41 5f                	pop    r15
  4046d5:	41 5e                	pop    r14
  4046d7:	41 5d                	pop    r13
  4046d9:	41 5c                	pop    r12
  4046db:	5b                   	pop    rbx
  4046dc:	c9                   	leave  
  4046dd:	c3                   	ret    
  4046de:	90                   	nop
  4046df:	90                   	nop

00000000004046e0 <_D3std6format60__T14formatIntegralTS3std5stdio4File17LockingTextWriterTmTaZ14formatIntegralFS3std5stdio4File17LockingTextWriterxmKS3std6format18__T10FormatSpecTaZ10FormatSpecmZv14__dgliteral933MFZAya>:
  4046e0:	55                   	push   rbp
  4046e1:	48 8b ec             	mov    rbp,rsp
  4046e4:	48 83 ec 08          	sub    rsp,0x8
  4046e8:	48 89 7d f8          	mov    QWORD PTR [rbp-0x8],rdi
  4046ec:	48 8b 15 95 1e 02 00 	mov    rdx,QWORD PTR [rip+0x21e95]        # 426588 <_TMP92+0x8>
  4046f3:	48 8b 05 86 1e 02 00 	mov    rax,QWORD PTR [rip+0x21e86]        # 426580 <_TMP92>
  4046fa:	c9                   	leave  
  4046fb:	c3                   	ret    

00000000004046fc <_D3std9exception44__T9enforceExTC3std6format15FormatExceptionZ16__T9enforceExTbZ9enforceExFNaNfbLAyaAyamZb>:
  4046fc:	55                   	push   rbp
  4046fd:	48 8b ec             	mov    rbp,rsp
  404700:	48 83 ec 18          	sub    rsp,0x18
  404704:	53                   	push   rbx
  404705:	48 89 7d f0          	mov    QWORD PTR [rbp-0x10],rdi
  404709:	89 75 f8             	mov    DWORD PTR [rbp-0x8],esi
  40470c:	8a 45 f8             	mov    al,BYTE PTR [rbp-0x8]
  40470f:	34 01                	xor    al,0x1
  404711:	74 46                	je     404759 <_D3std9exception44__T9enforceExTC3std6format15FormatExceptionZ16__T9enforceExTbZ9enforceExFNaNfbLAyaAyamZb+0x5d>
  404713:	48 bf 70 14 63 00 00 	movabs rdi,0x631470
  40471a:	00 00 00 
  40471d:	e8 6a 6e 00 00       	call   40b58c <_d_newclass>
  404722:	48 89 45 e8          	mov    QWORD PTR [rbp-0x18],rax
  404726:	48 8b 7d 20          	mov    rdi,QWORD PTR [rbp+0x20]
  40472a:	48 8b 55 28          	mov    rdx,QWORD PTR [rbp+0x28]
  40472e:	48 8b 5d 20          	mov    rbx,QWORD PTR [rbp+0x20]
  404732:	48 ff d2             	rex.W call rdx
  404735:	52                   	push   rdx
  404736:	50                   	push   rax
  404737:	ff 75 18             	push   QWORD PTR [rbp+0x18]
  40473a:	ff 75 10             	push   QWORD PTR [rbp+0x10]
  40473d:	48 8b 55 f0          	mov    rdx,QWORD PTR [rbp-0x10]
  404741:	48 31 f6             	xor    rsi,rsi
  404744:	48 8b 7d e8          	mov    rdi,QWORD PTR [rbp-0x18]
  404748:	e8 5b ac 00 00       	call   40f3a8 <_D3std6format15FormatException6__ctorMFAyaAyamC6object9ThrowableZC3std6format15FormatException>
  40474d:	48 83 c4 20          	add    rsp,0x20
  404751:	48 89 c7             	mov    rdi,rax
  404754:	e8 c7 60 00 00       	call   40a820 <_d_throwc>
  404759:	8a 45 f8             	mov    al,BYTE PTR [rbp-0x8]
  40475c:	5b                   	pop    rbx
  40475d:	c9                   	leave  
  40475e:	c3                   	ret    
  40475f:	90                   	nop

0000000000404760 <_D3std6format58__T14formatUnsignedTS3std5stdio4File17LockingTextWriterTaZ14formatUnsignedFS3std5stdio4File17LockingTextWritermKS3std6format18__T10FormatSpecTaZ10FormatSpeckbZv>:
  404760:	55                   	push   rbp
  404761:	48 8b ec             	mov    rbp,rsp
  404764:	48 81 ec 18 01 00 00 	sub    rsp,0x118
  40476b:	53                   	push   rbx
  40476c:	41 54                	push   r12
  40476e:	41 55                	push   r13
  404770:	41 56                	push   r14
  404772:	41 57                	push   r15
  404774:	89 7d d8             	mov    DWORD PTR [rbp-0x28],edi
  404777:	89 75 e0             	mov    DWORD PTR [rbp-0x20],esi
  40477a:	48 89 55 e8          	mov    QWORD PTR [rbp-0x18],rdx
  40477e:	48 89 4d f0          	mov    QWORD PTR [rbp-0x10],rcx
  404782:	48 8b 45 e8          	mov    rax,QWORD PTR [rbp-0x18]
  404786:	81 78 04 fe ff ff 7f 	cmp    DWORD PTR [rax+0x4],0x7ffffffe
  40478d:	75 0d                	jne    40479c <_D3std6format58__T14formatUnsignedTS3std5stdio4File17LockingTextWriterTaZ14formatUnsignedFS3std5stdio4File17LockingTextWritermKS3std6format18__T10FormatSpecTaZ10FormatSpeckbZv+0x3c>
  40478f:	48 8b 4d e8          	mov    rcx,QWORD PTR [rbp-0x18]
  404793:	c7 41 04 01 00 00 00 	mov    DWORD PTR [rcx+0x4],0x1
  40479a:	eb 0b                	jmp    4047a7 <_D3std6format58__T14formatUnsignedTS3std5stdio4File17LockingTextWriterTaZ14formatUnsignedFS3std5stdio4File17LockingTextWritermKS3std6format18__T10FormatSpecTaZ10FormatSpeckbZv+0x47>
  40479c:	31 f6                	xor    esi,esi
  40479e:	48 8b 7d e8          	mov    rdi,QWORD PTR [rbp-0x18]
  4047a2:	e8 b9 de ff ff       	call   402660 <_D3std6format18__T10FormatSpecTaZ10FormatSpec6flZeroMFNdbZv>
  4047a7:	48 8b 7d e8          	mov    rdi,QWORD PTR [rbp-0x18]
  4047ab:	e8 c4 dd ff ff       	call   402574 <_D3std6format18__T10FormatSpecTaZ10FormatSpec6flDashMxFNdZb>
  4047b0:	34 01                	xor    al,0x1
  4047b2:	74 16                	je     4047ca <_D3std6format58__T14formatUnsignedTS3std5stdio4File17LockingTextWriterTaZ14formatUnsignedFS3std5stdio4File17LockingTextWritermKS3std6format18__T10FormatSpecTaZ10FormatSpeckbZv+0x6a>
  4047b4:	48 8b 7d e8          	mov    rdi,QWORD PTR [rbp-0x18]
  4047b8:	e8 57 de ff ff       	call   402614 <_D3std6format18__T10FormatSpecTaZ10FormatSpec6flZeroMxFNdZb>
  4047bd:	34 01                	xor    al,0x1
  4047bf:	74 09                	je     4047ca <_D3std6format58__T14formatUnsignedTS3std5stdio4File17LockingTextWriterTaZ14formatUnsignedFS3std5stdio4File17LockingTextWritermKS3std6format18__T10FormatSpecTaZ10FormatSpeckbZv+0x6a>
  4047c1:	c6 85 18 ff ff ff 20 	mov    BYTE PTR [rbp-0xe8],0x20
  4047c8:	eb 2a                	jmp    4047f4 <_D3std6format58__T14formatUnsignedTS3std5stdio4File17LockingTextWriterTaZ14formatUnsignedFS3std5stdio4File17LockingTextWritermKS3std6format18__T10FormatSpecTaZ10FormatSpeckbZv+0x94>
  4047ca:	48 8b 7d e8          	mov    rdi,QWORD PTR [rbp-0x18]
  4047ce:	e8 a1 dd ff ff       	call   402574 <_D3std6format18__T10FormatSpecTaZ10FormatSpec6flDashMxFNdZb>
  4047d3:	34 01                	xor    al,0x1
  4047d5:	74 16                	je     4047ed <_D3std6format58__T14formatUnsignedTS3std5stdio4File17LockingTextWriterTaZ14formatUnsignedFS3std5stdio4File17LockingTextWritermKS3std6format18__T10FormatSpecTaZ10FormatSpeckbZv+0x8d>
  4047d7:	48 8b 7d e8          	mov    rdi,QWORD PTR [rbp-0x18]
  4047db:	e8 34 de ff ff       	call   402614 <_D3std6format18__T10FormatSpecTaZ10FormatSpec6flZeroMxFNdZb>
  4047e0:	84 c0                	test   al,al
  4047e2:	74 09                	je     4047ed <_D3std6format58__T14formatUnsignedTS3std5stdio4File17LockingTextWriterTaZ14formatUnsignedFS3std5stdio4File17LockingTextWritermKS3std6format18__T10FormatSpecTaZ10FormatSpeckbZv+0x8d>
  4047e4:	c6 85 18 ff ff ff 30 	mov    BYTE PTR [rbp-0xe8],0x30
  4047eb:	eb 07                	jmp    4047f4 <_D3std6format58__T14formatUnsignedTS3std5stdio4File17LockingTextWriterTaZ14formatUnsignedFS3std5stdio4File17LockingTextWritermKS3std6format18__T10FormatSpecTaZ10FormatSpeckbZv+0x94>
  4047ed:	c6 85 18 ff ff ff 00 	mov    BYTE PTR [rbp-0xe8],0x0
  4047f4:	48 8b 7d e8          	mov    rdi,QWORD PTR [rbp-0x18]
  4047f8:	e8 57 df ff ff       	call   402754 <_D3std6format18__T10FormatSpecTaZ10FormatSpec6flPlusMxFNdZb>
  4047fd:	84 c0                	test   al,al
  4047ff:	74 09                	je     40480a <_D3std6format58__T14formatUnsignedTS3std5stdio4File17LockingTextWriterTaZ14formatUnsignedFS3std5stdio4File17LockingTextWritermKS3std6format18__T10FormatSpecTaZ10FormatSpeckbZv+0xaa>
  404801:	c6 85 19 ff ff ff 2b 	mov    BYTE PTR [rbp-0xe7],0x2b
  404808:	eb 1d                	jmp    404827 <_D3std6format58__T14formatUnsignedTS3std5stdio4File17LockingTextWriterTaZ14formatUnsignedFS3std5stdio4File17LockingTextWritermKS3std6format18__T10FormatSpecTaZ10FormatSpeckbZv+0xc7>
  40480a:	48 8b 7d e8          	mov    rdi,QWORD PTR [rbp-0x18]
  40480e:	e8 a1 de ff ff       	call   4026b4 <_D3std6format18__T10FormatSpecTaZ10FormatSpec7flSpaceMxFNdZb>
  404813:	84 c0                	test   al,al
  404815:	74 09                	je     404820 <_D3std6format58__T14formatUnsignedTS3std5stdio4File17LockingTextWriterTaZ14formatUnsignedFS3std5stdio4File17LockingTextWritermKS3std6format18__T10FormatSpecTaZ10FormatSpeckbZv+0xc0>
  404817:	c6 85 19 ff ff ff 20 	mov    BYTE PTR [rbp-0xe7],0x20
  40481e:	eb 07                	jmp    404827 <_D3std6format58__T14formatUnsignedTS3std5stdio4File17LockingTextWriterTaZ14formatUnsignedFS3std5stdio4File17LockingTextWritermKS3std6format18__T10FormatSpecTaZ10FormatSpeckbZv+0xc7>
  404820:	c6 85 19 ff ff ff 00 	mov    BYTE PTR [rbp-0xe7],0x0
  404827:	83 7d e0 0a          	cmp    DWORD PTR [rbp-0x20],0xa
  40482b:	74 09                	je     404836 <_D3std6format58__T14formatUnsignedTS3std5stdio4File17LockingTextWriterTaZ14formatUnsignedFS3std5stdio4File17LockingTextWritermKS3std6format18__T10FormatSpecTaZ10FormatSpeckbZv+0xd6>
  40482d:	c6 85 19 ff ff ff 00 	mov    BYTE PTR [rbp-0xe7],0x0
  404834:	eb 0e                	jmp    404844 <_D3std6format58__T14formatUnsignedTS3std5stdio4File17LockingTextWriterTaZ14formatUnsignedFS3std5stdio4File17LockingTextWritermKS3std6format18__T10FormatSpecTaZ10FormatSpeckbZv+0xe4>
  404836:	40 80 7d d8 00       	rex cmp BYTE PTR [rbp-0x28],0x0
  40483b:	74 07                	je     404844 <_D3std6format58__T14formatUnsignedTS3std5stdio4File17LockingTextWriterTaZ14formatUnsignedFS3std5stdio4File17LockingTextWritermKS3std6format18__T10FormatSpecTaZ10FormatSpeckbZv+0xe4>
  40483d:	c6 85 19 ff ff ff 2d 	mov    BYTE PTR [rbp-0xe7],0x2d
  404844:	48 b9 10 00 00 00 00 	movabs rcx,0x10
  40484b:	00 00 00 
  40484e:	48 b8 ff ff ff ff ff 	movabs rax,0xffffffffffffffff
  404855:	ff ff ff 
  404858:	48 8d bd 38 ff ff ff 	lea    rdi,[rbp-0xc8]
  40485f:	f3 ab                	rep stos DWORD PTR es:[rdi],eax
  404861:	c7 85 78 ff ff ff 40 	mov    DWORD PTR [rbp-0x88],0x40
  404868:	00 00 00 
  40486b:	48 8b 4d f0          	mov    rcx,QWORD PTR [rbp-0x10]
  40486f:	48 89 4d 80          	mov    QWORD PTR [rbp-0x80],rcx
  404873:	ff 8d 78 ff ff ff    	dec    DWORD PTR [rbp-0x88]
  404879:	8b 95 78 ff ff ff    	mov    edx,DWORD PTR [rbp-0x88]
  40487f:	48 83 fa 40          	cmp    rdx,0x40
  404883:	48 be 01 00 00 00 00 	movabs rsi,0x1
  40488a:	00 00 00 
  40488d:	72 03                	jb     404892 <_D3std6format58__T14formatUnsignedTS3std5stdio4File17LockingTextWriterTaZ14formatUnsignedFS3std5stdio4File17LockingTextWritermKS3std6format18__T10FormatSpecTaZ10FormatSpeckbZv+0x132>
  40488f:	40 b6 00             	mov    sil,0x0
  404892:	48 89 95 f0 fe ff ff 	mov    QWORD PTR [rbp-0x110],rdx
  404899:	48 89 b5 f8 fe ff ff 	mov    QWORD PTR [rbp-0x108],rsi
  4048a0:	72 0a                	jb     4048ac <_D3std6format58__T14formatUnsignedTS3std5stdio4File17LockingTextWriterTaZ14formatUnsignedFS3std5stdio4File17LockingTextWritermKS3std6format18__T10FormatSpecTaZ10FormatSpeckbZv+0x14c>
  4048a2:	bf d4 04 00 00       	mov    edi,0x4d4
  4048a7:	e8 60 aa 00 00       	call   40f30c <_D3std6format7__arrayZ>
  4048ac:	48 8b 45 80          	mov    rax,QWORD PTR [rbp-0x80]
  4048b0:	8b 4d e0             	mov    ecx,DWORD PTR [rbp-0x20]
  4048b3:	48 31 d2             	xor    rdx,rdx
  4048b6:	48 f7 f1             	div    rcx
  4048b9:	48 8b 9d f0 fe ff ff 	mov    rbx,QWORD PTR [rbp-0x110]
  4048c0:	48 8d b4 1d 38 ff ff 	lea    rsi,[rbp+rbx*1-0xc8]
  4048c7:	ff 
  4048c8:	48 88 16             	rex.W mov BYTE PTR [rsi],dl
  4048cb:	48 8b 45 80          	mov    rax,QWORD PTR [rbp-0x80]
  4048cf:	31 d2                	xor    edx,edx
  4048d1:	48 f7 f1             	div    rcx
  4048d4:	48 89 45 80          	mov    QWORD PTR [rbp-0x80],rax
  4048d8:	83 bd f8 fe ff ff 00 	cmp    DWORD PTR [rbp-0x108],0x0
  4048df:	48 89 b5 00 ff ff ff 	mov    QWORD PTR [rbp-0x100],rsi
  4048e6:	75 0a                	jne    4048f2 <_D3std6format58__T14formatUnsignedTS3std5stdio4File17LockingTextWriterTaZ14formatUnsignedFS3std5stdio4File17LockingTextWritermKS3std6format18__T10FormatSpecTaZ10FormatSpeckbZv+0x192>
  4048e8:	bf d6 04 00 00       	mov    edi,0x4d6
  4048ed:	e8 1a aa 00 00       	call   40f30c <_D3std6format7__arrayZ>
  4048f2:	48 8b 85 00 ff ff ff 	mov    rax,QWORD PTR [rbp-0x100]
  4048f9:	8a 08                	mov    cl,BYTE PTR [rax]
  4048fb:	80 f9 0a             	cmp    cl,0xa
  4048fe:	73 2e                	jae    40492e <_D3std6format58__T14formatUnsignedTS3std5stdio4File17LockingTextWriterTaZ14formatUnsignedFS3std5stdio4File17LockingTextWritermKS3std6format18__T10FormatSpecTaZ10FormatSpeckbZv+0x1ce>
  404900:	8b 95 78 ff ff ff    	mov    edx,DWORD PTR [rbp-0x88]
  404906:	48 83 fa 40          	cmp    rdx,0x40
  40490a:	48 89 95 08 ff ff ff 	mov    QWORD PTR [rbp-0xf8],rdx
  404911:	72 0a                	jb     40491d <_D3std6format58__T14formatUnsignedTS3std5stdio4File17LockingTextWriterTaZ14formatUnsignedFS3std5stdio4File17LockingTextWritermKS3std6format18__T10FormatSpecTaZ10FormatSpeckbZv+0x1bd>
  404913:	bf d6 04 00 00       	mov    edi,0x4d6
  404918:	e8 ef a9 00 00       	call   40f30c <_D3std6format7__arrayZ>
  40491d:	48 8b 9d 08 ff ff ff 	mov    rbx,QWORD PTR [rbp-0xf8]
  404924:	80 84 1d 38 ff ff ff 	add    BYTE PTR [rbp+rbx*1-0xc8],0x30
  40492b:	30 
  40492c:	eb 3f                	jmp    40496d <_D3std6format58__T14formatUnsignedTS3std5stdio4File17LockingTextWriterTaZ14formatUnsignedFS3std5stdio4File17LockingTextWritermKS3std6format18__T10FormatSpecTaZ10FormatSpeckbZv+0x20d>
  40492e:	8b 85 78 ff ff ff    	mov    eax,DWORD PTR [rbp-0x88]
  404934:	48 83 f8 40          	cmp    rax,0x40
  404938:	48 89 85 10 ff ff ff 	mov    QWORD PTR [rbp-0xf0],rax
  40493f:	72 0a                	jb     40494b <_D3std6format58__T14formatUnsignedTS3std5stdio4File17LockingTextWriterTaZ14formatUnsignedFS3std5stdio4File17LockingTextWritermKS3std6format18__T10FormatSpecTaZ10FormatSpeckbZv+0x1eb>
  404941:	bf d7 04 00 00       	mov    edi,0x4d7
  404946:	e8 c1 a9 00 00       	call   40f30c <_D3std6format7__arrayZ>
  40494b:	48 8b 4d e8          	mov    rcx,QWORD PTR [rbp-0x18]
  40494f:	80 79 08 78          	cmp    BYTE PTR [rcx+0x8],0x78
  404953:	ba 61 00 00 00       	mov    edx,0x61
  404958:	74 02                	je     40495c <_D3std6format58__T14formatUnsignedTS3std5stdio4File17LockingTextWriterTaZ14formatUnsignedFS3std5stdio4File17LockingTextWritermKS3std6format18__T10FormatSpecTaZ10FormatSpeckbZv+0x1fc>
  40495a:	b2 41                	mov    dl,0x41
  40495c:	80 c2 f6             	add    dl,0xf6
  40495f:	48 8b 85 10 ff ff ff 	mov    rax,QWORD PTR [rbp-0xf0]
  404966:	00 94 05 38 ff ff ff 	add    BYTE PTR [rbp+rax*1-0xc8],dl
  40496d:	48 83 7d 80 00       	cmp    QWORD PTR [rbp-0x80],0x0
  404972:	0f 85 fb fe ff ff    	jne    404873 <_D3std6format58__T14formatUnsignedTS3std5stdio4File17LockingTextWriterTaZ14formatUnsignedFS3std5stdio4File17LockingTextWritermKS3std6format18__T10FormatSpecTaZ10FormatSpeckbZv+0x113>
  404978:	48 bb 40 00 00 00 00 	movabs rbx,0x40
  40497f:	00 00 00 
  404982:	48 89 5d 88          	mov    QWORD PTR [rbp-0x78],rbx
  404986:	48 83 fb 40          	cmp    rbx,0x40
  40498a:	77 0b                	ja     404997 <_D3std6format58__T14formatUnsignedTS3std5stdio4File17LockingTextWriterTaZ14formatUnsignedFS3std5stdio4File17LockingTextWritermKS3std6format18__T10FormatSpecTaZ10FormatSpeckbZv+0x237>
  40498c:	8b 8d 78 ff ff ff    	mov    ecx,DWORD PTR [rbp-0x88]
  404992:	48 3b cb             	cmp    rcx,rbx
  404995:	76 0a                	jbe    4049a1 <_D3std6format58__T14formatUnsignedTS3std5stdio4File17LockingTextWriterTaZ14formatUnsignedFS3std5stdio4File17LockingTextWritermKS3std6format18__T10FormatSpecTaZ10FormatSpeckbZv+0x241>
  404997:	bf d9 04 00 00       	mov    edi,0x4d9
  40499c:	e8 6b a9 00 00       	call   40f30c <_D3std6format7__arrayZ>
  4049a1:	8b 95 78 ff ff ff    	mov    edx,DWORD PTR [rbp-0x88]
  4049a7:	48 2b da             	sub    rbx,rdx
  4049aa:	48 8d 8c 15 38 ff ff 	lea    rcx,[rbp+rdx*1-0xc8]
  4049b1:	ff 
  4049b2:	48 89 9d 28 ff ff ff 	mov    QWORD PTR [rbp-0xd8],rbx
  4049b9:	48 89 8d 30 ff ff ff 	mov    QWORD PTR [rbp-0xd0],rcx
  4049c0:	83 7d e0 08          	cmp    DWORD PTR [rbp-0x20],0x8
  4049c4:	75 25                	jne    4049eb <_D3std6format58__T14formatUnsignedTS3std5stdio4File17LockingTextWriterTaZ14formatUnsignedFS3std5stdio4File17LockingTextWritermKS3std6format18__T10FormatSpecTaZ10FormatSpeckbZv+0x28b>
  4049c6:	48 8b 7d e8          	mov    rdi,QWORD PTR [rbp-0x18]
  4049ca:	e8 25 de ff ff       	call   4027f4 <_D3std6format18__T10FormatSpecTaZ10FormatSpec6flHashMxFNdZb>
  4049cf:	84 c0                	test   al,al
  4049d1:	74 18                	je     4049eb <_D3std6format58__T14formatUnsignedTS3std5stdio4File17LockingTextWriterTaZ14formatUnsignedFS3std5stdio4File17LockingTextWritermKS3std6format18__T10FormatSpecTaZ10FormatSpeckbZv+0x28b>
  4049d3:	48 8b 5d e8          	mov    rbx,QWORD PTR [rbp-0x18]
  4049d7:	48 63 43 04          	movsxd rax,DWORD PTR [rbx+0x4]
  4049db:	48 3b 85 28 ff ff ff 	cmp    rax,QWORD PTR [rbp-0xd8]
  4049e2:	77 07                	ja     4049eb <_D3std6format58__T14formatUnsignedTS3std5stdio4File17LockingTextWriterTaZ14formatUnsignedFS3std5stdio4File17LockingTextWritermKS3std6format18__T10FormatSpecTaZ10FormatSpeckbZv+0x28b>
  4049e4:	c6 85 19 ff ff ff 30 	mov    BYTE PTR [rbp-0xe7],0x30
  4049eb:	48 8b 4d e8          	mov    rcx,QWORD PTR [rbp-0x18]
  4049ef:	48 63 11             	movsxd rdx,DWORD PTR [rcx]
  4049f2:	48 2b 95 28 ff ff ff 	sub    rdx,QWORD PTR [rbp-0xd8]
  4049f9:	80 bd 19 ff ff ff 01 	cmp    BYTE PTR [rbp-0xe7],0x1
  404a00:	19 c0                	sbb    eax,eax
  404a02:	ff c0                	inc    eax
  404a04:	48 98                	cdqe   
  404a06:	48 2b d0             	sub    rdx,rax
  404a09:	52                   	push   rdx
  404a0a:	48 83 ec 08          	sub    rsp,0x8
  404a0e:	83 7d e0 10          	cmp    DWORD PTR [rbp-0x20],0x10
  404a12:	75 1f                	jne    404a33 <_D3std6format58__T14formatUnsignedTS3std5stdio4File17LockingTextWriterTaZ14formatUnsignedFS3std5stdio4File17LockingTextWritermKS3std6format18__T10FormatSpecTaZ10FormatSpeckbZv+0x2d3>
  404a14:	48 89 cf             	mov    rdi,rcx
  404a17:	e8 d8 dd ff ff       	call   4027f4 <_D3std6format18__T10FormatSpecTaZ10FormatSpec6flHashMxFNdZb>
  404a1c:	84 c0                	test   al,al
  404a1e:	74 13                	je     404a33 <_D3std6format58__T14formatUnsignedTS3std5stdio4File17LockingTextWriterTaZ14formatUnsignedFS3std5stdio4File17LockingTextWritermKS3std6format18__T10FormatSpecTaZ10FormatSpeckbZv+0x2d3>
  404a20:	48 83 7d f0 00       	cmp    QWORD PTR [rbp-0x10],0x0
  404a25:	74 0c                	je     404a33 <_D3std6format58__T14formatUnsignedTS3std5stdio4File17LockingTextWriterTaZ14formatUnsignedFS3std5stdio4File17LockingTextWritermKS3std6format18__T10FormatSpecTaZ10FormatSpeckbZv+0x2d3>
  404a27:	48 be 02 00 00 00 00 	movabs rsi,0x2
  404a2e:	00 00 00 
  404a31:	eb 03                	jmp    404a36 <_D3std6format58__T14formatUnsignedTS3std5stdio4File17LockingTextWriterTaZ14formatUnsignedFS3std5stdio4File17LockingTextWritermKS3std6format18__T10FormatSpecTaZ10FormatSpeckbZv+0x2d6>
  404a33:	48 31 f6             	xor    rsi,rsi
  404a36:	48 83 c4 08          	add    rsp,0x8
  404a3a:	5a                   	pop    rdx
  404a3b:	48 2b d6             	sub    rdx,rsi
  404a3e:	48 89 55 90          	mov    QWORD PTR [rbp-0x70],rdx
  404a42:	48 8b 45 e8          	mov    rax,QWORD PTR [rbp-0x18]
  404a46:	48 63 48 04          	movsxd rcx,DWORD PTR [rax+0x4]
  404a4a:	48 2b 8d 28 ff ff ff 	sub    rcx,QWORD PTR [rbp-0xd8]
  404a51:	48 89 4d 98          	mov    QWORD PTR [rbp-0x68],rcx
  404a55:	48 83 7d 98 00       	cmp    QWORD PTR [rbp-0x68],0x0
  404a5a:	7e 08                	jle    404a64 <_D3std6format58__T14formatUnsignedTS3std5stdio4File17LockingTextWriterTaZ14formatUnsignedFS3std5stdio4File17LockingTextWritermKS3std6format18__T10FormatSpecTaZ10FormatSpeckbZv+0x304>
  404a5c:	48 8b 55 98          	mov    rdx,QWORD PTR [rbp-0x68]
  404a60:	48 29 55 90          	sub    QWORD PTR [rbp-0x70],rdx
  404a64:	48 83 7d 90 00       	cmp    QWORD PTR [rbp-0x70],0x0
  404a69:	7e 53                	jle    404abe <_D3std6format58__T14formatUnsignedTS3std5stdio4File17LockingTextWriterTaZ14formatUnsignedFS3std5stdio4File17LockingTextWritermKS3std6format18__T10FormatSpecTaZ10FormatSpeckbZv+0x35e>
  404a6b:	80 bd 18 ff ff ff 30 	cmp    BYTE PTR [rbp-0xe8],0x30
  404a72:	75 14                	jne    404a88 <_D3std6format58__T14formatUnsignedTS3std5stdio4File17LockingTextWriterTaZ14formatUnsignedFS3std5stdio4File17LockingTextWritermKS3std6format18__T10FormatSpecTaZ10FormatSpeckbZv+0x328>
  404a74:	48 8b 5d 90          	mov    rbx,QWORD PTR [rbp-0x70]
  404a78:	48 03 9d 28 ff ff ff 	add    rbx,QWORD PTR [rbp-0xd8]
  404a7f:	48 8b 75 e8          	mov    rsi,QWORD PTR [rbp-0x18]
  404a83:	89 5e 04             	mov    DWORD PTR [rsi+0x4],ebx
  404a86:	eb 36                	jmp    404abe <_D3std6format58__T14formatUnsignedTS3std5stdio4File17LockingTextWriterTaZ14formatUnsignedFS3std5stdio4File17LockingTextWritermKS3std6format18__T10FormatSpecTaZ10FormatSpeckbZv+0x35e>
  404a88:	40 80 bd 18 ff ff ff 	rex cmp BYTE PTR [rbp-0xe8],0x0
  404a8f:	00 
  404a90:	74 2c                	je     404abe <_D3std6format58__T14formatUnsignedTS3std5stdio4File17LockingTextWriterTaZ14formatUnsignedFS3std5stdio4File17LockingTextWritermKS3std6format18__T10FormatSpecTaZ10FormatSpeckbZv+0x35e>
  404a92:	48 c7 45 a0 00 00 00 	mov    QWORD PTR [rbp-0x60],0x0
  404a99:	00 
  404a9a:	48 8b 4d 90          	mov    rcx,QWORD PTR [rbp-0x70]
  404a9e:	48 89 4d a8          	mov    QWORD PTR [rbp-0x58],rcx
  404aa2:	48 8b 45 a0          	mov    rax,QWORD PTR [rbp-0x60]
  404aa6:	48 3b 45 a8          	cmp    rax,QWORD PTR [rbp-0x58]
  404aaa:	7d 12                	jge    404abe <_D3std6format58__T14formatUnsignedTS3std5stdio4File17LockingTextWriterTaZ14formatUnsignedFS3std5stdio4File17LockingTextWritermKS3std6format18__T10FormatSpecTaZ10FormatSpeckbZv+0x35e>
  404aac:	48 8d 75 10          	lea    rsi,[rbp+0x10]
  404ab0:	40 b7 20             	mov    dil,0x20
  404ab3:	e8 18 01 00 00       	call   404bd0 <_D3std5range46__T3putTS3std5stdio4File17LockingTextWriterTaZ3putFKS3std5stdio4File17LockingTextWriteraZv>
  404ab8:	48 ff 45 a0          	inc    QWORD PTR [rbp-0x60]
  404abc:	eb e4                	jmp    404aa2 <_D3std6format58__T14formatUnsignedTS3std5stdio4File17LockingTextWriterTaZ14formatUnsignedFS3std5stdio4File17LockingTextWritermKS3std6format18__T10FormatSpecTaZ10FormatSpeckbZv+0x342>
  404abe:	40 80 bd 19 ff ff ff 	rex cmp BYTE PTR [rbp-0xe7],0x0
  404ac5:	00 
  404ac6:	74 10                	je     404ad8 <_D3std6format58__T14formatUnsignedTS3std5stdio4File17LockingTextWriterTaZ14formatUnsignedFS3std5stdio4File17LockingTextWritermKS3std6format18__T10FormatSpecTaZ10FormatSpeckbZv+0x378>
  404ac8:	48 8d 75 10          	lea    rsi,[rbp+0x10]
  404acc:	40 8a bd 19 ff ff ff 	mov    dil,BYTE PTR [rbp-0xe7]
  404ad3:	e8 f8 00 00 00       	call   404bd0 <_D3std5range46__T3putTS3std5stdio4File17LockingTextWriterTaZ3putFKS3std5stdio4File17LockingTextWriteraZv>
  404ad8:	83 7d e0 10          	cmp    DWORD PTR [rbp-0x20],0x10
  404adc:	75 3b                	jne    404b19 <_D3std6format58__T14formatUnsignedTS3std5stdio4File17LockingTextWriterTaZ14formatUnsignedFS3std5stdio4File17LockingTextWritermKS3std6format18__T10FormatSpecTaZ10FormatSpeckbZv+0x3b9>
  404ade:	48 8b 7d e8          	mov    rdi,QWORD PTR [rbp-0x18]
  404ae2:	e8 0d dd ff ff       	call   4027f4 <_D3std6format18__T10FormatSpecTaZ10FormatSpec6flHashMxFNdZb>
  404ae7:	84 c0                	test   al,al
  404ae9:	74 2e                	je     404b19 <_D3std6format58__T14formatUnsignedTS3std5stdio4File17LockingTextWriterTaZ14formatUnsignedFS3std5stdio4File17LockingTextWritermKS3std6format18__T10FormatSpecTaZ10FormatSpeckbZv+0x3b9>
  404aeb:	48 83 7d f0 00       	cmp    QWORD PTR [rbp-0x10],0x0
  404af0:	74 27                	je     404b19 <_D3std6format58__T14formatUnsignedTS3std5stdio4File17LockingTextWriterTaZ14formatUnsignedFS3std5stdio4File17LockingTextWritermKS3std6format18__T10FormatSpecTaZ10FormatSpeckbZv+0x3b9>
  404af2:	48 8d 75 10          	lea    rsi,[rbp+0x10]
  404af6:	40 b7 30             	mov    dil,0x30
  404af9:	e8 d2 00 00 00       	call   404bd0 <_D3std5range46__T3putTS3std5stdio4File17LockingTextWriterTaZ3putFKS3std5stdio4File17LockingTextWriteraZv>
  404afe:	48 8d 75 10          	lea    rsi,[rbp+0x10]
  404b02:	48 8b 45 e8          	mov    rax,QWORD PTR [rbp-0x18]
  404b06:	80 78 08 78          	cmp    BYTE PTR [rax+0x8],0x78
  404b0a:	bf 78 00 00 00       	mov    edi,0x78
  404b0f:	74 03                	je     404b14 <_D3std6format58__T14formatUnsignedTS3std5stdio4File17LockingTextWriterTaZ14formatUnsignedFS3std5stdio4File17LockingTextWritermKS3std6format18__T10FormatSpecTaZ10FormatSpeckbZv+0x3b4>
  404b11:	40 b7 58             	mov    dil,0x58
  404b14:	e8 b7 00 00 00       	call   404bd0 <_D3std5range46__T3putTS3std5stdio4File17LockingTextWriterTaZ3putFKS3std5stdio4File17LockingTextWriteraZv>
  404b19:	48 83 7d f0 00       	cmp    QWORD PTR [rbp-0x10],0x0
  404b1e:	75 0a                	jne    404b2a <_D3std6format58__T14formatUnsignedTS3std5stdio4File17LockingTextWriterTaZ14formatUnsignedFS3std5stdio4File17LockingTextWritermKS3std6format18__T10FormatSpecTaZ10FormatSpeckbZv+0x3ca>
  404b20:	48 8b 4d e8          	mov    rcx,QWORD PTR [rbp-0x18]
  404b24:	83 79 04 00          	cmp    DWORD PTR [rcx+0x4],0x0
  404b28:	74 54                	je     404b7e <_D3std6format58__T14formatUnsignedTS3std5stdio4File17LockingTextWriterTaZ14formatUnsignedFS3std5stdio4File17LockingTextWritermKS3std6format18__T10FormatSpecTaZ10FormatSpeckbZv+0x41e>
  404b2a:	48 8b 45 e8          	mov    rax,QWORD PTR [rbp-0x18]
  404b2e:	48 63 50 04          	movsxd rdx,DWORD PTR [rax+0x4]
  404b32:	48 2b 95 28 ff ff ff 	sub    rdx,QWORD PTR [rbp-0xd8]
  404b39:	48 89 55 b0          	mov    QWORD PTR [rbp-0x50],rdx
  404b3d:	48 c7 45 b8 00 00 00 	mov    QWORD PTR [rbp-0x48],0x0
  404b44:	00 
  404b45:	48 89 55 c0          	mov    QWORD PTR [rbp-0x40],rdx
  404b49:	48 8b 5d b8          	mov    rbx,QWORD PTR [rbp-0x48]
  404b4d:	48 3b 5d c0          	cmp    rbx,QWORD PTR [rbp-0x40]
  404b51:	7d 12                	jge    404b65 <_D3std6format58__T14formatUnsignedTS3std5stdio4File17LockingTextWriterTaZ14formatUnsignedFS3std5stdio4File17LockingTextWritermKS3std6format18__T10FormatSpecTaZ10FormatSpeckbZv+0x405>
  404b53:	48 8d 75 10          	lea    rsi,[rbp+0x10]
  404b57:	40 b7 30             	mov    dil,0x30
  404b5a:	e8 71 00 00 00       	call   404bd0 <_D3std5range46__T3putTS3std5stdio4File17LockingTextWriterTaZ3putFKS3std5stdio4File17LockingTextWriteraZv>
  404b5f:	48 ff 45 b8          	inc    QWORD PTR [rbp-0x48]
  404b63:	eb e4                	jmp    404b49 <_D3std6format58__T14formatUnsignedTS3std5stdio4File17LockingTextWriterTaZ14formatUnsignedFS3std5stdio4File17LockingTextWritermKS3std6format18__T10FormatSpecTaZ10FormatSpeckbZv+0x3e9>
  404b65:	48 8d 7d 10          	lea    rdi,[rbp+0x10]
  404b69:	ff b5 30 ff ff ff    	push   QWORD PTR [rbp-0xd0]
  404b6f:	ff b5 28 ff ff ff    	push   QWORD PTR [rbp-0xd8]
  404b75:	e8 e2 00 00 00       	call   404c5c <_D3std5range47__T3putTS3std5stdio4File17LockingTextWriterTAaZ3putFKS3std5stdio4File17LockingTextWriterAaZv>
  404b7a:	48 83 c4 10          	add    rsp,0x10
  404b7e:	40 80 bd 18 ff ff ff 	rex cmp BYTE PTR [rbp-0xe8],0x0
  404b85:	00 
  404b86:	75 2c                	jne    404bb4 <_D3std6format58__T14formatUnsignedTS3std5stdio4File17LockingTextWriterTaZ14formatUnsignedFS3std5stdio4File17LockingTextWritermKS3std6format18__T10FormatSpecTaZ10FormatSpeckbZv+0x454>
  404b88:	48 c7 45 c8 00 00 00 	mov    QWORD PTR [rbp-0x38],0x0
  404b8f:	00 
  404b90:	48 8b 45 90          	mov    rax,QWORD PTR [rbp-0x70]
  404b94:	48 89 45 d0          	mov    QWORD PTR [rbp-0x30],rax
  404b98:	48 8b 4d c8          	mov    rcx,QWORD PTR [rbp-0x38]
  404b9c:	48 3b 4d d0          	cmp    rcx,QWORD PTR [rbp-0x30]
  404ba0:	7d 12                	jge    404bb4 <_D3std6format58__T14formatUnsignedTS3std5stdio4File17LockingTextWriterTaZ14formatUnsignedFS3std5stdio4File17LockingTextWritermKS3std6format18__T10FormatSpecTaZ10FormatSpeckbZv+0x454>
  404ba2:	48 8d 75 10          	lea    rsi,[rbp+0x10]
  404ba6:	40 b7 20             	mov    dil,0x20
  404ba9:	e8 22 00 00 00       	call   404bd0 <_D3std5range46__T3putTS3std5stdio4File17LockingTextWriterTaZ3putFKS3std5stdio4File17LockingTextWriteraZv>
  404bae:	48 ff 45 c8          	inc    QWORD PTR [rbp-0x38]
  404bb2:	eb e4                	jmp    404b98 <_D3std6format58__T14formatUnsignedTS3std5stdio4File17LockingTextWriterTaZ14formatUnsignedFS3std5stdio4File17LockingTextWritermKS3std6format18__T10FormatSpecTaZ10FormatSpeckbZv+0x438>
  404bb4:	68 c3 4b 40 00       	push   0x404bc3
  404bb9:	48 8d 7d 10          	lea    rdi,[rbp+0x10]
  404bbd:	e8 96 b6 00 00       	call   410258 <_D3std5stdio4File17LockingTextWriter6__dtorMFZv>
  404bc2:	c3                   	ret    
  404bc3:	41 5f                	pop    r15
  404bc5:	41 5e                	pop    r14
  404bc7:	41 5d                	pop    r13
  404bc9:	41 5c                	pop    r12
  404bcb:	5b                   	pop    rbx
  404bcc:	c9                   	leave  
  404bcd:	c3                   	ret    
  404bce:	90                   	nop
  404bcf:	90                   	nop

0000000000404bd0 <_D3std5range46__T3putTS3std5stdio4File17LockingTextWriterTaZ3putFKS3std5stdio4File17LockingTextWriteraZv>:
  404bd0:	55                   	push   rbp
  404bd1:	48 8b ec             	mov    rbp,rsp
  404bd4:	48 83 ec 10          	sub    rsp,0x10
  404bd8:	89 7d f0             	mov    DWORD PTR [rbp-0x10],edi
  404bdb:	48 89 75 f8          	mov    QWORD PTR [rbp-0x8],rsi
  404bdf:	40 8a 75 f0          	mov    sil,BYTE PTR [rbp-0x10]
  404be3:	48 8b 7d f8          	mov    rdi,QWORD PTR [rbp-0x8]
  404be7:	e8 04 00 00 00       	call   404bf0 <_D3std5stdio4File17LockingTextWriter10__T3putTaZ3putMFaZv>
  404bec:	c9                   	leave  
  404bed:	c3                   	ret    
  404bee:	90                   	nop
  404bef:	90                   	nop

0000000000404bf0 <_D3std5stdio4File17LockingTextWriter10__T3putTaZ3putMFaZv>:
  404bf0:	55                   	push   rbp
  404bf1:	48 8b ec             	mov    rbp,rsp
  404bf4:	48 83 ec 10          	sub    rsp,0x10
  404bf8:	48 89 7d f0          	mov    QWORD PTR [rbp-0x10],rdi
  404bfc:	89 75 f8             	mov    DWORD PTR [rbp-0x8],esi
  404bff:	48 83 7d f0 00       	cmp    QWORD PTR [rbp-0x10],0x0
  404c04:	75 22                	jne    404c28 <_D3std5stdio4File17LockingTextWriter10__T3putTaZ3putMFaZv+0x38>
  404c06:	bf d6 04 00 00       	mov    edi,0x4d6
  404c0b:	ff 35 e7 18 02 00    	push   QWORD PTR [rip+0x218e7]        # 4264f8 <_TMP84+0x8>
  404c11:	ff 35 d9 18 02 00    	push   QWORD PTR [rip+0x218d9]        # 4264f0 <_TMP84>
  404c17:	ff 35 fb 18 02 00    	push   QWORD PTR [rip+0x218fb]        # 426518 <_TMP85+0x8>
  404c1d:	ff 35 ed 18 02 00    	push   QWORD PTR [rip+0x218ed]        # 426510 <_TMP85>
  404c23:	e8 04 61 00 00       	call   40ad2c <_d_assert_msg>
  404c28:	48 8b 45 f0          	mov    rax,QWORD PTR [rbp-0x10]
  404c2c:	83 78 10 00          	cmp    DWORD PTR [rax+0x10],0x0
  404c30:	7f 14                	jg     404c46 <_D3std5stdio4File17LockingTextWriter10__T3putTaZ3putMFaZv+0x56>
  404c32:	48 8b 4d f0          	mov    rcx,QWORD PTR [rbp-0x10]
  404c36:	48 8b 71 08          	mov    rsi,QWORD PTR [rcx+0x8]
  404c3a:	40 0f b6 7d f8       	rex movzx edi,BYTE PTR [rbp-0x8]
  404c3f:	e8 34 cd ff ff       	call   401978 <fputc_unlocked@plt>
  404c44:	eb 12                	jmp    404c58 <_D3std5stdio4File17LockingTextWriter10__T3putTaZ3putMFaZv+0x68>
  404c46:	48 8b 55 f0          	mov    rdx,QWORD PTR [rbp-0x10]
  404c4a:	48 8b 72 08          	mov    rsi,QWORD PTR [rdx+0x8]
  404c4e:	40 0f b6 7d f8       	rex movzx edi,BYTE PTR [rbp-0x8]
  404c53:	e8 80 cf ff ff       	call   401bd8 <fputwc_unlocked@plt>
  404c58:	c9                   	leave  
  404c59:	c3                   	ret    
  404c5a:	90                   	nop
  404c5b:	90                   	nop

0000000000404c5c <_D3std5range47__T3putTS3std5stdio4File17LockingTextWriterTAaZ3putFKS3std5stdio4File17LockingTextWriterAaZv>:
  404c5c:	55                   	push   rbp
  404c5d:	48 8b ec             	mov    rbp,rsp
  404c60:	48 83 ec 10          	sub    rsp,0x10
  404c64:	48 89 7d f8          	mov    QWORD PTR [rbp-0x8],rdi
  404c68:	ff 75 18             	push   QWORD PTR [rbp+0x18]
  404c6b:	ff 75 10             	push   QWORD PTR [rbp+0x10]
  404c6e:	48 8b 7d f8          	mov    rdi,QWORD PTR [rbp-0x8]
  404c72:	e8 31 01 00 00       	call   404da8 <_D3std5stdio4File17LockingTextWriter11__T3putTAaZ3putMFAaZv>
  404c77:	48 83 c4 10          	add    rsp,0x10
  404c7b:	c9                   	leave  
  404c7c:	c3                   	ret    
  404c7d:	90                   	nop
  404c7e:	90                   	nop
  404c7f:	90                   	nop

0000000000404c80 <_D3std5array13__T5frontTAaZ5frontFNdAaZw>:
  404c80:	55                   	push   rbp
  404c81:	48 8b ec             	mov    rbp,rsp
  404c84:	48 83 ec 10          	sub    rsp,0x10
  404c88:	48 83 7d 10 00       	cmp    QWORD PTR [rbp+0x10],0x0
  404c8d:	75 22                	jne    404cb1 <_D3std5array13__T5frontTAaZ5frontFNdAaZw+0x31>
  404c8f:	bf d1 01 00 00       	mov    edi,0x1d1
  404c94:	ff 35 3e 19 02 00    	push   QWORD PTR [rip+0x2193e]        # 4265d8 <_TMP96+0x8>
  404c9a:	ff 35 30 19 02 00    	push   QWORD PTR [rip+0x21930]        # 4265d0 <_TMP96>
  404ca0:	ff 35 82 19 02 00    	push   QWORD PTR [rip+0x21982]        # 426628 <_TMP97+0x8>
  404ca6:	ff 35 74 19 02 00    	push   QWORD PTR [rip+0x21974]        # 426620 <_TMP97>
  404cac:	e8 7b 60 00 00       	call   40ad2c <_d_assert_msg>
  404cb1:	48 c7 45 f8 00 00 00 	mov    QWORD PTR [rbp-0x8],0x0
  404cb8:	00 
  404cb9:	ff 75 18             	push   QWORD PTR [rbp+0x18]
  404cbc:	ff 75 10             	push   QWORD PTR [rbp+0x10]
  404cbf:	48 8d 7d f8          	lea    rdi,[rbp-0x8]
  404cc3:	e8 08 00 00 00       	call   404cd0 <_D3std3utf14__T6decodeTAaZ6decodeFNaNexAaKmZw>
  404cc8:	48 83 c4 10          	add    rsp,0x10
  404ccc:	c9                   	leave  
  404ccd:	c3                   	ret    
  404cce:	90                   	nop
  404ccf:	90                   	nop

0000000000404cd0 <_D3std3utf14__T6decodeTAaZ6decodeFNaNexAaKmZw>:
  404cd0:	55                   	push   rbp
  404cd1:	48 8b ec             	mov    rbp,rsp
  404cd4:	48 83 ec 18          	sub    rsp,0x18
  404cd8:	53                   	push   rbx
  404cd9:	48 89 7d f8          	mov    QWORD PTR [rbp-0x8],rdi
  404cdd:	48 8b 45 f8          	mov    rax,QWORD PTR [rbp-0x8]
  404ce1:	48 8b 08             	mov    rcx,QWORD PTR [rax]
  404ce4:	48 3b 4d 10          	cmp    rcx,QWORD PTR [rbp+0x10]
  404ce8:	72 22                	jb     404d0c <_D3std3utf14__T6decodeTAaZ6decodeFNaNexAaKmZw+0x3c>
  404cea:	bf 2e 02 00 00       	mov    edi,0x22e
  404cef:	ff 35 83 19 02 00    	push   QWORD PTR [rip+0x21983]        # 426678 <_TMP98+0x8>
  404cf5:	ff 35 75 19 02 00    	push   QWORD PTR [rip+0x21975]        # 426670 <_TMP98>
  404cfb:	ff 35 a7 17 02 00    	push   QWORD PTR [rip+0x217a7]        # 4264a8 <_TMP82+0x8>
  404d01:	ff 35 99 17 02 00    	push   QWORD PTR [rip+0x21799]        # 4264a0 <_TMP82>
  404d07:	e8 20 60 00 00       	call   40ad2c <_d_assert_msg>
  404d0c:	48 8b 10             	mov    rdx,QWORD PTR [rax]
  404d0f:	48 3b 55 10          	cmp    rdx,QWORD PTR [rbp+0x10]
  404d13:	72 0a                	jb     404d1f <_D3std3utf14__T6decodeTAaZ6decodeFNaNexAaKmZw+0x4f>
  404d15:	bf 36 02 00 00       	mov    edi,0x236
  404d1a:	e8 a1 c2 00 00       	call   410fc0 <_D3std3utf7__arrayZ>
  404d1f:	48 8b 55 18          	mov    rdx,QWORD PTR [rbp+0x18]
  404d23:	48 8b 45 10          	mov    rax,QWORD PTR [rbp+0x10]
  404d27:	48 8b 4d f8          	mov    rcx,QWORD PTR [rbp-0x8]
  404d2b:	48 8b 19             	mov    rbx,QWORD PTR [rcx]
  404d2e:	40 8a 34 1a          	mov    sil,BYTE PTR [rdx+rbx*1]
  404d32:	40 80 fe 80          	cmp    sil,0x80
  404d36:	73 33                	jae    404d6b <_D3std3utf14__T6decodeTAaZ6decodeFNaNexAaKmZw+0x9b>
  404d38:	48 8b 7d f8          	mov    rdi,QWORD PTR [rbp-0x8]
  404d3c:	48 8b 07             	mov    rax,QWORD PTR [rdi]
  404d3f:	48 ff 07             	inc    QWORD PTR [rdi]
  404d42:	48 89 45 f0          	mov    QWORD PTR [rbp-0x10],rax
  404d46:	48 3b 45 10          	cmp    rax,QWORD PTR [rbp+0x10]
  404d4a:	72 0a                	jb     404d56 <_D3std3utf14__T6decodeTAaZ6decodeFNaNexAaKmZw+0x86>
  404d4c:	bf 37 02 00 00       	mov    edi,0x237
  404d51:	e8 6a c2 00 00       	call   410fc0 <_D3std3utf7__arrayZ>
  404d56:	48 8b 55 18          	mov    rdx,QWORD PTR [rbp+0x18]
  404d5a:	48 8b 45 10          	mov    rax,QWORD PTR [rbp+0x10]
  404d5e:	48 8b 5d f0          	mov    rbx,QWORD PTR [rbp-0x10]
  404d62:	0f b6 0c 1a          	movzx  ecx,BYTE PTR [rdx+rbx*1]
  404d66:	89 4d e8             	mov    DWORD PTR [rbp-0x18],ecx
  404d69:	eb 21                	jmp    404d8c <_D3std3utf14__T6decodeTAaZ6decodeFNaNexAaKmZw+0xbc>
  404d6b:	48 8b 75 f8          	mov    rsi,QWORD PTR [rbp-0x8]
  404d6f:	48 8b 16             	mov    rdx,QWORD PTR [rsi]
  404d72:	48 03 55 18          	add    rdx,QWORD PTR [rbp+0x18]
  404d76:	48 8b 75 10          	mov    rsi,QWORD PTR [rbp+0x10]
  404d7a:	48 8b 45 f8          	mov    rax,QWORD PTR [rbp-0x8]
  404d7e:	48 2b 30             	sub    rsi,QWORD PTR [rax]
  404d81:	48 89 c7             	mov    rdi,rax
  404d84:	e8 5b c5 00 00       	call   4112e4 <_D3std3utf10decodeImplFNaNePxamKmZw>
  404d89:	89 45 e8             	mov    DWORD PTR [rbp-0x18],eax
  404d8c:	8b 7d e8             	mov    edi,DWORD PTR [rbp-0x18]
  404d8f:	e8 a0 c4 00 00       	call   411234 <_D3std3utf12isValidDcharFNaNbNfwZb>
  404d94:	84 c0                	test   al,al
  404d96:	75 0a                	jne    404da2 <_D3std3utf14__T6decodeTAaZ6decodeFNaNexAaKmZw+0xd2>
  404d98:	bf 32 02 00 00       	mov    edi,0x232
  404d9d:	e8 3a c2 00 00       	call   410fdc <_D3std3utf8__assertFiZv>
  404da2:	8b 45 e8             	mov    eax,DWORD PTR [rbp-0x18]
  404da5:	5b                   	pop    rbx
  404da6:	c9                   	leave  
  404da7:	c3                   	ret    

0000000000404da8 <_D3std5stdio4File17LockingTextWriter11__T3putTAaZ3putMFAaZv>:
  404da8:	55                   	push   rbp
  404da9:	48 8b ec             	mov    rbp,rsp
  404dac:	48 83 ec 18          	sub    rsp,0x18
  404db0:	53                   	push   rbx
  404db1:	48 89 7d f8          	mov    QWORD PTR [rbp-0x8],rdi
  404db5:	48 83 7d f8 00       	cmp    QWORD PTR [rbp-0x8],0x0
  404dba:	75 22                	jne    404dde <_D3std5stdio4File17LockingTextWriter11__T3putTAaZ3putMFAaZv+0x36>
  404dbc:	bf ba 04 00 00       	mov    edi,0x4ba
  404dc1:	ff 35 01 19 02 00    	push   QWORD PTR [rip+0x21901]        # 4266c8 <_TMP100+0x8>
  404dc7:	ff 35 f3 18 02 00    	push   QWORD PTR [rip+0x218f3]        # 4266c0 <_TMP100>
  404dcd:	ff 35 45 17 02 00    	push   QWORD PTR [rip+0x21745]        # 426518 <_TMP85+0x8>
  404dd3:	ff 35 37 17 02 00    	push   QWORD PTR [rip+0x21737]        # 426510 <_TMP85>
  404dd9:	e8 4e 5f 00 00       	call   40ad2c <_d_assert_msg>
  404dde:	48 8b 45 f8          	mov    rax,QWORD PTR [rbp-0x8]
  404de2:	83 78 10 00          	cmp    DWORD PTR [rax+0x10],0x0
  404de6:	7f 45                	jg     404e2d <_D3std5stdio4File17LockingTextWriter11__T3putTAaZ3putMFAaZv+0x85>
  404de8:	48 8b 4d f8          	mov    rcx,QWORD PTR [rbp-0x8]
  404dec:	48 8b 09             	mov    rcx,QWORD PTR [rcx]
  404def:	48 8b 55 10          	mov    rdx,QWORD PTR [rbp+0x10]
  404df3:	48 be 01 00 00 00 00 	movabs rsi,0x1
  404dfa:	00 00 00 
  404dfd:	48 8b 7d 18          	mov    rdi,QWORD PTR [rbp+0x18]
  404e01:	e8 02 cf ff ff       	call   401d08 <fwrite@plt>
  404e06:	48 89 45 f0          	mov    QWORD PTR [rbp-0x10],rax
  404e0a:	48 3b 45 10          	cmp    rax,QWORD PTR [rbp+0x10]
  404e0e:	74 3c                	je     404e4c <_D3std5stdio4File17LockingTextWriter11__T3putTAaZ3putMFAaZv+0xa4>
  404e10:	31 ff                	xor    edi,edi
  404e12:	48 8d 45 f8          	lea    rax,[rbp-0x8]
  404e16:	48 b9 50 4e 40 00 00 	movabs rcx,0x404e50
  404e1d:	00 00 00 
  404e20:	51                   	push   rcx
  404e21:	50                   	push   rax
  404e22:	e8 a5 f4 ff ff       	call   4042cc <_D3std9exception138__T12errnoEnforceTiVAyaa52_2f7573722f696e636c7564652f7838365f36342d6c696e75782d676e752f646d642f70686f626f732f7374642f737464696f2e64Vi1223Z12errnoEnforceFNaNfiLAyaZi>
  404e27:	48 83 c4 10          	add    rsp,0x10
  404e2b:	eb 1f                	jmp    404e4c <_D3std5stdio4File17LockingTextWriter11__T3putTAaZ3putMFAaZv+0xa4>
  404e2d:	48 8d 5d f8          	lea    rbx,[rbp-0x8]
  404e31:	48 ba 64 4e 40 00 00 	movabs rdx,0x404e64
  404e38:	00 00 00 
  404e3b:	52                   	push   rdx
  404e3c:	53                   	push   rbx
  404e3d:	ff 75 18             	push   QWORD PTR [rbp+0x18]
  404e40:	ff 75 10             	push   QWORD PTR [rbp+0x10]
  404e43:	e8 68 56 00 00       	call   40a4b0 <_aApplycd1>
  404e48:	48 83 c4 20          	add    rsp,0x20
  404e4c:	5b                   	pop    rbx
  404e4d:	c9                   	leave  
  404e4e:	c3                   	ret    
  404e4f:	90                   	nop

0000000000404e50 <_D3std5stdio4File17LockingTextWriter11__T3putTAaZ3putMFAaZv14__dgliteral938MFZAya>:
  404e50:	55                   	push   rbp
  404e51:	48 8b ec             	mov    rbp,rsp
  404e54:	48 83 ec 08          	sub    rsp,0x8
  404e58:	48 89 7d f8          	mov    QWORD PTR [rbp-0x8],rdi
  404e5c:	31 c0                	xor    eax,eax
  404e5e:	31 d2                	xor    edx,edx
  404e60:	c9                   	leave  
  404e61:	c3                   	ret    
  404e62:	90                   	nop
  404e63:	90                   	nop

0000000000404e64 <_D3std5stdio4File17LockingTextWriter11__T3putTAaZ3putMFAaZv16__foreachbody939MFKwZi>:
  404e64:	55                   	push   rbp
  404e65:	48 8b ec             	mov    rbp,rsp
  404e68:	48 83 ec 20          	sub    rsp,0x20
  404e6c:	48 89 7d f0          	mov    QWORD PTR [rbp-0x10],rdi
  404e70:	48 89 75 f8          	mov    QWORD PTR [rbp-0x8],rsi
  404e74:	48 8b 45 f8          	mov    rax,QWORD PTR [rbp-0x8]
  404e78:	8b 08                	mov    ecx,DWORD PTR [rax]
  404e7a:	89 4d e8             	mov    DWORD PTR [rbp-0x18],ecx
  404e7d:	48 89 ce             	mov    rsi,rcx
  404e80:	48 8b 55 f0          	mov    rdx,QWORD PTR [rbp-0x10]
  404e84:	48 8b 3a             	mov    rdi,QWORD PTR [rdx]
  404e87:	e8 a8 f4 ff ff       	call   404334 <_D3std5stdio4File17LockingTextWriter10__T3putTwZ3putMFwZv>
  404e8c:	31 c0                	xor    eax,eax
  404e8e:	c9                   	leave  
  404e8f:	c3                   	ret    

0000000000404e90 <_D3std6format59__T13formatGenericTS3std5stdio4File17LockingTextWriterTkTaZ13formatGenericFS3std5stdio4File17LockingTextWriterPxvKS3std6format18__T10FormatSpecTaZ10FormatSpecZv>:
  404e90:	55                   	push   rbp
  404e91:	48 8b ec             	mov    rbp,rsp
  404e94:	48 83 ec 28          	sub    rsp,0x28
  404e98:	53                   	push   rbx
  404e99:	41 54                	push   r12
  404e9b:	41 55                	push   r13
  404e9d:	41 56                	push   r14
  404e9f:	41 57                	push   r15
  404ea1:	48 89 7d f0          	mov    QWORD PTR [rbp-0x10],rdi
  404ea5:	48 89 75 f8          	mov    QWORD PTR [rbp-0x8],rsi
  404ea9:	48 83 ec 08          	sub    rsp,0x8
  404ead:	48 83 ec 08          	sub    rsp,0x8
  404eb1:	48 8d 75 10          	lea    rsi,[rbp+0x10]
  404eb5:	48 8d 7d d8          	lea    rdi,[rbp-0x28]
  404eb9:	e8 02 b4 00 00       	call   4102c0 <_D3std5stdio4File17LockingTextWriter8__cpctorMxFKxS3std5stdio4File17LockingTextWriterZv>
  404ebe:	48 83 c4 08          	add    rsp,0x8
  404ec2:	48 8d 5d d8          	lea    rbx,[rbp-0x28]
  404ec6:	ff 73 10             	push   QWORD PTR [rbx+0x10]
  404ec9:	ff 73 08             	push   QWORD PTR [rbx+0x8]
  404ecc:	ff 33                	push   QWORD PTR [rbx]
  404ece:	48 8b 45 f8          	mov    rax,QWORD PTR [rbp-0x8]
  404ed2:	8b 30                	mov    esi,DWORD PTR [rax]
  404ed4:	48 8b 7d f0          	mov    rdi,QWORD PTR [rbp-0x10]
  404ed8:	e8 1f 00 00 00       	call   404efc <_D3std6format57__T11formatValueTS3std5stdio4File17LockingTextWriterTkTaZ11formatValueFS3std5stdio4File17LockingTextWriterkKS3std6format18__T10FormatSpecTaZ10FormatSpecZv>
  404edd:	48 83 c4 20          	add    rsp,0x20
  404ee1:	68 f0 4e 40 00       	push   0x404ef0
  404ee6:	48 8d 7d 10          	lea    rdi,[rbp+0x10]
  404eea:	e8 69 b3 00 00       	call   410258 <_D3std5stdio4File17LockingTextWriter6__dtorMFZv>
  404eef:	c3                   	ret    
  404ef0:	41 5f                	pop    r15
  404ef2:	41 5e                	pop    r14
  404ef4:	41 5d                	pop    r13
  404ef6:	41 5c                	pop    r12
  404ef8:	5b                   	pop    rbx
  404ef9:	c9                   	leave  
  404efa:	c3                   	ret    
  404efb:	90                   	nop

0000000000404efc <_D3std6format57__T11formatValueTS3std5stdio4File17LockingTextWriterTkTaZ11formatValueFS3std5stdio4File17LockingTextWriterkKS3std6format18__T10FormatSpecTaZ10FormatSpecZv>:
  404efc:	55                   	push   rbp
  404efd:	48 8b ec             	mov    rbp,rsp
  404f00:	48 83 ec 58          	sub    rsp,0x58
  404f04:	53                   	push   rbx
  404f05:	41 54                	push   r12
  404f07:	41 55                	push   r13
  404f09:	41 56                	push   r14
  404f0b:	41 57                	push   r15
  404f0d:	48 89 7d f0          	mov    QWORD PTR [rbp-0x10],rdi
  404f11:	89 75 f8             	mov    DWORD PTR [rbp-0x8],esi
  404f14:	8b 45 f8             	mov    eax,DWORD PTR [rbp-0x8]
  404f17:	89 45 a8             	mov    DWORD PTR [rbp-0x58],eax
  404f1a:	48 8b 4d f0          	mov    rcx,QWORD PTR [rbp-0x10]
  404f1e:	80 79 08 72          	cmp    BYTE PTR [rcx+0x8],0x72
  404f22:	0f 85 97 00 00 00    	jne    404fbf <_D3std6format57__T11formatValueTS3std5stdio4File17LockingTextWriterTkTaZ11formatValueFS3std5stdio4File17LockingTextWriterkKS3std6format18__T10FormatSpecTaZ10FormatSpecZv+0xc3>
  404f28:	48 8d 55 a8          	lea    rdx,[rbp-0x58]
  404f2c:	48 89 55 b0          	mov    QWORD PTR [rbp-0x50],rdx
  404f30:	48 8b 7d f0          	mov    rdi,QWORD PTR [rbp-0x10]
  404f34:	e8 1b d8 ff ff       	call   402754 <_D3std6format18__T10FormatSpecTaZ10FormatSpec6flPlusMxFNdZb>
  404f39:	84 c0                	test   al,al
  404f3b:	74 35                	je     404f72 <_D3std6format57__T11formatValueTS3std5stdio4File17LockingTextWriterTkTaZ11formatValueFS3std5stdio4File17LockingTextWriterkKS3std6format18__T10FormatSpecTaZ10FormatSpecZv+0x76>
  404f3d:	48 c7 45 b8 00 00 00 	mov    QWORD PTR [rbp-0x48],0x0
  404f44:	00 
  404f45:	48 c7 45 c0 04 00 00 	mov    QWORD PTR [rbp-0x40],0x4
  404f4c:	00 
  404f4d:	48 8b 5d c0          	mov    rbx,QWORD PTR [rbp-0x40]
  404f51:	48 ff 4d c0          	dec    QWORD PTR [rbp-0x40]
  404f55:	48 3b 5d b8          	cmp    rbx,QWORD PTR [rbp-0x48]
  404f59:	76 4c                	jbe    404fa7 <_D3std6format57__T11formatValueTS3std5stdio4File17LockingTextWriterTkTaZ11formatValueFS3std5stdio4File17LockingTextWriterkKS3std6format18__T10FormatSpecTaZ10FormatSpecZv+0xab>
  404f5b:	48 8d 75 10          	lea    rsi,[rbp+0x10]
  404f5f:	48 8b 45 b0          	mov    rax,QWORD PTR [rbp-0x50]
  404f63:	48 8b 4d c0          	mov    rcx,QWORD PTR [rbp-0x40]
  404f67:	40 8a 3c 08          	mov    dil,BYTE PTR [rax+rcx*1]
  404f6b:	e8 c8 f5 ff ff       	call   404538 <_D3std5range47__T3putTS3std5stdio4File17LockingTextWriterTxaZ3putFKS3std5stdio4File17LockingTextWriterxaZv>
  404f70:	eb db                	jmp    404f4d <_D3std6format57__T11formatValueTS3std5stdio4File17LockingTextWriterTkTaZ11formatValueFS3std5stdio4File17LockingTextWriterkKS3std6format18__T10FormatSpecTaZ10FormatSpecZv+0x51>
  404f72:	48 c7 45 c8 00 00 00 	mov    QWORD PTR [rbp-0x38],0x0
  404f79:	00 
  404f7a:	48 c7 45 d0 04 00 00 	mov    QWORD PTR [rbp-0x30],0x4
  404f81:	00 
  404f82:	48 8b 55 c8          	mov    rdx,QWORD PTR [rbp-0x38]
  404f86:	48 3b 55 d0          	cmp    rdx,QWORD PTR [rbp-0x30]
  404f8a:	73 1b                	jae    404fa7 <_D3std6format57__T11formatValueTS3std5stdio4File17LockingTextWriterTkTaZ11formatValueFS3std5stdio4File17LockingTextWriterkKS3std6format18__T10FormatSpecTaZ10FormatSpecZv+0xab>
  404f8c:	48 8d 75 10          	lea    rsi,[rbp+0x10]
  404f90:	48 8b 45 b0          	mov    rax,QWORD PTR [rbp-0x50]
  404f94:	48 8b 4d c8          	mov    rcx,QWORD PTR [rbp-0x38]
  404f98:	40 8a 3c 08          	mov    dil,BYTE PTR [rax+rcx*1]
  404f9c:	e8 97 f5 ff ff       	call   404538 <_D3std5range47__T3putTS3std5stdio4File17LockingTextWriterTxaZ3putFKS3std5stdio4File17LockingTextWriterxaZv>
  404fa1:	48 ff 45 c8          	inc    QWORD PTR [rbp-0x38]
  404fa5:	eb db                	jmp    404f82 <_D3std6format57__T11formatValueTS3std5stdio4File17LockingTextWriterTkTaZ11formatValueFS3std5stdio4File17LockingTextWriterkKS3std6format18__T10FormatSpecTaZ10FormatSpecZv+0x86>
  404fa7:	48 83 ec 08          	sub    rsp,0x8
  404fab:	e8 53 00 00 00       	call   405003 <_D3std6format57__T11formatValueTS3std5stdio4File17LockingTextWriterTkTaZ11formatValueFS3std5stdio4File17LockingTextWriterkKS3std6format18__T10FormatSpecTaZ10FormatSpecZv+0x107>
  404fb0:	48 83 c4 08          	add    rsp,0x8
  404fb4:	41 5f                	pop    r15
  404fb6:	41 5e                	pop    r14
  404fb8:	41 5d                	pop    r13
  404fba:	41 5c                	pop    r12
  404fbc:	5b                   	pop    rbx
  404fbd:	c9                   	leave  
  404fbe:	c3                   	ret    
  404fbf:	48 83 ec 08          	sub    rsp,0x8
  404fc3:	48 83 ec 08          	sub    rsp,0x8
  404fc7:	48 8d 75 10          	lea    rsi,[rbp+0x10]
  404fcb:	48 8d 7d d8          	lea    rdi,[rbp-0x28]
  404fcf:	e8 ec b2 00 00       	call   4102c0 <_D3std5stdio4File17LockingTextWriter8__cpctorMxFKxS3std5stdio4File17LockingTextWriterZv>
  404fd4:	48 83 c4 08          	add    rsp,0x8
  404fd8:	48 8d 5d d8          	lea    rbx,[rbp-0x28]
  404fdc:	ff 73 10             	push   QWORD PTR [rbx+0x10]
  404fdf:	ff 73 08             	push   QWORD PTR [rbx+0x8]
  404fe2:	ff 33                	push   QWORD PTR [rbx]
  404fe4:	8b 55 a8             	mov    edx,DWORD PTR [rbp-0x58]
  404fe7:	48 8b 75 f0          	mov    rsi,QWORD PTR [rbp-0x10]
  404feb:	48 bf ff ff ff ff 00 	movabs rdi,0xffffffff
  404ff2:	00 00 00 
  404ff5:	e8 ca f5 ff ff       	call   4045c4 <_D3std6format60__T14formatIntegralTS3std5stdio4File17LockingTextWriterTmTaZ14formatIntegralFS3std5stdio4File17LockingTextWriterxmKS3std6format18__T10FormatSpecTaZ10FormatSpecmZv>
  404ffa:	48 83 c4 20          	add    rsp,0x20
  404ffe:	68 0d 50 40 00       	push   0x40500d
